
testing.elf:     file format elf32-littlearm


Disassembly of section .text:

00027000 <__vectors>:
   27000:	00 f0 03 20 b1 b1 02 00 89 9c 02 00 d5 9c 02 00     ... ............
   27010:	d5 9c 02 00 d5 9c 02 00 d5 9c 02 00 00 00 00 00     ................
	...
   2702c:	59 a4 02 00 89 9c 02 00 00 00 00 00 71 a4 02 00     Y...........q...
   2703c:	89 9c 02 00 8d 87 02 00 89 9c 02 00 89 9c 02 00     ................
   2704c:	89 9c 02 00 89 9c 02 00 89 9c 02 00 89 9c 02 00     ................
   2705c:	89 9c 02 00 89 9c 02 00 71 a5 02 00 89 9c 02 00     ........q.......
   2706c:	89 9c 02 00 89 9c 02 00 89 9c 02 00 89 9c 02 00     ................
   2707c:	89 9c 02 00 89 9c 02 00 89 9c 02 00 89 9c 02 00     ................
   2708c:	89 9c 02 00 89 9c 02 00 89 9c 02 00 89 9c 02 00     ................
   2709c:	89 9c 02 00 89 9c 02 00 89 9c 02 00 89 9c 02 00     ................
   270ac:	89 9c 02 00 89 9c 02 00 89 9c 02 00 00 00 00 00     ................
   270bc:	00 00 00 00 89 9c 02 00 89 9c 02 00 89 9c 02 00     ................
   270cc:	89 9c 02 00 89 9c 02 00 89 9c 02 00 89 9c 02 00     ................
   270dc:	c1 94 02 00 55 86 02 00 00 00 00 00 00 00 00 00     ....U...........
	...
   270f4:	89 9c 02 00 00 00 00 00 89 9c 02 00 00 00 00 00     ................
	...

00027140 <__do_global_dtors_aux>:
   27140:	b510      	push	{r4, lr}
   27142:	4c05      	ldr	r4, [pc, #20]	; (27158 <__do_global_dtors_aux+0x18>)
   27144:	7823      	ldrb	r3, [r4, #0]
   27146:	b933      	cbnz	r3, 27156 <__do_global_dtors_aux+0x16>
   27148:	4b04      	ldr	r3, [pc, #16]	; (2715c <__do_global_dtors_aux+0x1c>)
   2714a:	b113      	cbz	r3, 27152 <__do_global_dtors_aux+0x12>
   2714c:	4804      	ldr	r0, [pc, #16]	; (27160 <__do_global_dtors_aux+0x20>)
   2714e:	f3af 8000 	nop.w
   27152:	2301      	movs	r3, #1
   27154:	7023      	strb	r3, [r4, #0]
   27156:	bd10      	pop	{r4, pc}
   27158:	20006044 	.word	0x20006044
   2715c:	00000000 	.word	0x00000000
   27160:	0002b9e4 	.word	0x0002b9e4

00027164 <frame_dummy>:
   27164:	b508      	push	{r3, lr}
   27166:	4b03      	ldr	r3, [pc, #12]	; (27174 <frame_dummy+0x10>)
   27168:	b11b      	cbz	r3, 27172 <frame_dummy+0xe>
   2716a:	4903      	ldr	r1, [pc, #12]	; (27178 <frame_dummy+0x14>)
   2716c:	4803      	ldr	r0, [pc, #12]	; (2717c <frame_dummy+0x18>)
   2716e:	f3af 8000 	nop.w
   27172:	bd08      	pop	{r3, pc}
   27174:	00000000 	.word	0x00000000
   27178:	20006048 	.word	0x20006048
   2717c:	0002b9e4 	.word	0x0002b9e4

00027180 <_mainCRTStartup>:
   27180:	4b15      	ldr	r3, [pc, #84]	; (271d8 <_mainCRTStartup+0x58>)
   27182:	2b00      	cmp	r3, #0
   27184:	bf08      	it	eq
   27186:	4b13      	ldreq	r3, [pc, #76]	; (271d4 <_mainCRTStartup+0x54>)
   27188:	469d      	mov	sp, r3
   2718a:	f5a3 3a80 	sub.w	sl, r3, #65536	; 0x10000
   2718e:	2100      	movs	r1, #0
   27190:	468b      	mov	fp, r1
   27192:	460f      	mov	r7, r1
   27194:	4813      	ldr	r0, [pc, #76]	; (271e4 <_mainCRTStartup+0x64>)
   27196:	4a14      	ldr	r2, [pc, #80]	; (271e8 <_mainCRTStartup+0x68>)
   27198:	1a12      	subs	r2, r2, r0
   2719a:	f004 f801 	bl	2b1a0 <memset>
   2719e:	4b0f      	ldr	r3, [pc, #60]	; (271dc <_mainCRTStartup+0x5c>)
   271a0:	2b00      	cmp	r3, #0
   271a2:	d000      	beq.n	271a6 <_mainCRTStartup+0x26>
   271a4:	4798      	blx	r3
   271a6:	4b0e      	ldr	r3, [pc, #56]	; (271e0 <_mainCRTStartup+0x60>)
   271a8:	2b00      	cmp	r3, #0
   271aa:	d000      	beq.n	271ae <_mainCRTStartup+0x2e>
   271ac:	4798      	blx	r3
   271ae:	2000      	movs	r0, #0
   271b0:	2100      	movs	r1, #0
   271b2:	0004      	movs	r4, r0
   271b4:	000d      	movs	r5, r1
   271b6:	480d      	ldr	r0, [pc, #52]	; (271ec <_mainCRTStartup+0x6c>)
   271b8:	2800      	cmp	r0, #0
   271ba:	d002      	beq.n	271c2 <_mainCRTStartup+0x42>
   271bc:	480c      	ldr	r0, [pc, #48]	; (271f0 <_mainCRTStartup+0x70>)
   271be:	f3af 8000 	nop.w
   271c2:	f004 f8bb 	bl	2b33c <__libc_init_array>
   271c6:	0020      	movs	r0, r4
   271c8:	0029      	movs	r1, r5
   271ca:	f000 f8a5 	bl	27318 <main>
   271ce:	f002 fc15 	bl	299fc <exit>
   271d2:	bf00      	nop
   271d4:	00080000 	.word	0x00080000
   271d8:	2003f000 	.word	0x2003f000
	...
   271e4:	20006044 	.word	0x20006044
   271e8:	20006a34 	.word	0x20006a34
	...

000271f4 <expt>:
   271f4:	b580      	push	{r7, lr}
   271f6:	b082      	sub	sp, #8
   271f8:	4f27      	ldr	r7, [pc, #156]	; (27298 <expt+0xa4>)
   271fa:	f8df 80a8 	ldr.w	r8, [pc, #168]	; 272a4 <expt+0xb0>
   271fe:	e018      	b.n	27232 <expt+0x3e>
   27200:	2240      	movs	r2, #64	; 0x40
   27202:	4b26      	ldr	r3, [pc, #152]	; (2729c <expt+0xa8>)
   27204:	609a      	str	r2, [r3, #8]
   27206:	f5a3 7340 	sub.w	r3, r3, #768	; 0x300
   2720a:	4925      	ldr	r1, [pc, #148]	; (272a0 <expt+0xac>)
   2720c:	6099      	str	r1, [r3, #8]
   2720e:	60da      	str	r2, [r3, #12]
   27210:	2100      	movs	r1, #0
   27212:	f04f 30ff 	mov.w	r0, #4294967295	; 0xffffffff
   27216:	f001 fc69 	bl	28aec <tud_task_ext>
   2721a:	2400      	movs	r4, #0
   2721c:	f04f 0940 	mov.w	r9, #64	; 0x40
   27220:	2601      	movs	r6, #1
   27222:	b2e5      	uxtb	r5, r4
   27224:	4628      	mov	r0, r5
   27226:	f001 fc4b 	bl	28ac0 <tud_cdc_n_connected>
   2722a:	b9b0      	cbnz	r0, 2725a <expt+0x66>
   2722c:	3401      	adds	r4, #1
   2722e:	2c02      	cmp	r4, #2
   27230:	d1f7      	bne.n	27222 <expt+0x2e>
   27232:	2028      	movs	r0, #40	; 0x28
   27234:	f003 f9f0 	bl	2a618 <timer_delay>
   27238:	683b      	ldr	r3, [r7, #0]
   2723a:	691b      	ldr	r3, [r3, #16]
   2723c:	f013 0f08 	tst.w	r3, #8
   27240:	d1de      	bne.n	27200 <expt+0xc>
   27242:	4b16      	ldr	r3, [pc, #88]	; (2729c <expt+0xa8>)
   27244:	2240      	movs	r2, #64	; 0x40
   27246:	60da      	str	r2, [r3, #12]
   27248:	f5a3 7340 	sub.w	r3, r3, #768	; 0x300
   2724c:	f102 4288 	add.w	r2, r2, #1140850688	; 0x44000000
   27250:	609a      	str	r2, [r3, #8]
   27252:	f04f 4280 	mov.w	r2, #1073741824	; 0x40000000
   27256:	60da      	str	r2, [r3, #12]
   27258:	e7da      	b.n	27210 <expt+0x1c>
   2725a:	4628      	mov	r0, r5
   2725c:	f001 fc24 	bl	28aa8 <tud_cdc_n_available>
   27260:	2800      	cmp	r0, #0
   27262:	d0e3      	beq.n	2722c <expt+0x38>
   27264:	464a      	mov	r2, r9
   27266:	4641      	mov	r1, r8
   27268:	4628      	mov	r0, r5
   2726a:	f001 fbdf 	bl	28a2c <tud_cdc_n_read>
   2726e:	4682      	mov	sl, r0
   27270:	b168      	cbz	r0, 2728e <expt+0x9a>
   27272:	4d0c      	ldr	r5, [pc, #48]	; (272a4 <expt+0xb0>)
   27274:	44aa      	add	sl, r5
   27276:	f815 3b01 	ldrb.w	r3, [r5], #1
   2727a:	f88d 3007 	strb.w	r3, [sp, #7]
   2727e:	4632      	mov	r2, r6
   27280:	f10d 0107 	add.w	r1, sp, #7
   27284:	4630      	mov	r0, r6
   27286:	f001 fbb5 	bl	289f4 <tud_cdc_n_write>
   2728a:	4555      	cmp	r5, sl
   2728c:	d1f3      	bne.n	27276 <expt+0x82>
   2728e:	4630      	mov	r0, r6
   27290:	f001 fac6 	bl	28820 <tud_cdc_n_write_flush>
   27294:	e7ca      	b.n	2722c <expt+0x38>
   27296:	bf00      	nop
   27298:	0002b9dc 	.word	0x0002b9dc
   2729c:	50000800 	.word	0x50000800
   272a0:	44000040 	.word	0x44000040
   272a4:	20006060 	.word	0x20006060

000272a8 <init>:
   272a8:	b508      	push	{r3, lr}
   272aa:	f003 fb91 	bl	2a9d0 <serial_init>
   272ae:	f003 f975 	bl	2a59c <timer_init>
   272b2:	2000      	movs	r0, #0
   272b4:	f003 fd1a 	bl	2acec <i2c_init>
   272b8:	4b11      	ldr	r3, [pc, #68]	; (27300 <init+0x58>)
   272ba:	4a12      	ldr	r2, [pc, #72]	; (27304 <init+0x5c>)
   272bc:	619a      	str	r2, [r3, #24]
   272be:	4912      	ldr	r1, [pc, #72]	; (27308 <init+0x60>)
   272c0:	2040      	movs	r0, #64	; 0x40
   272c2:	6188      	str	r0, [r1, #24]
   272c4:	609a      	str	r2, [r3, #8]
   272c6:	60da      	str	r2, [r3, #12]
   272c8:	4b10      	ldr	r3, [pc, #64]	; (2730c <init+0x64>)
   272ca:	681b      	ldr	r3, [r3, #0]
   272cc:	f8d3 220c 	ldr.w	r2, [r3, #524]	; 0x20c
   272d0:	f022 0202 	bic.w	r2, r2, #2
   272d4:	f8c3 220c 	str.w	r2, [r3, #524]	; 0x20c
   272d8:	f8d3 220c 	ldr.w	r2, [r3, #524]	; 0x20c
   272dc:	f042 020c 	orr.w	r2, r2, #12
   272e0:	f8c3 220c 	str.w	r2, [r3, #524]	; 0x20c
   272e4:	f002 f882 	bl	293ec <usb_init>
   272e8:	2000      	movs	r0, #0
   272ea:	f002 f845 	bl	29378 <tud_init>
   272ee:	f44f 5380 	mov.w	r3, #4096	; 0x1000
   272f2:	2200      	movs	r2, #0
   272f4:	4906      	ldr	r1, [pc, #24]	; (27310 <init+0x68>)
   272f6:	4807      	ldr	r0, [pc, #28]	; (27314 <init+0x6c>)
   272f8:	f002 fd92 	bl	29e20 <start>
   272fc:	bd08      	pop	{r3, pc}
   272fe:	bf00      	nop
   27300:	50000500 	.word	0x50000500
   27304:	44000040 	.word	0x44000040
   27308:	50000800 	.word	0x50000800
   2730c:	0002b9dc 	.word	0x0002b9dc
   27310:	000271f5 	.word	0x000271f5
   27314:	0002b51c 	.word	0x0002b51c

00027318 <main>:
   27318:	4770      	bx	lr
	...

0002731c <accel_start>:
   2731c:	b508      	push	{r3, lr}
   2731e:	211d      	movs	r1, #29
   27320:	2001      	movs	r0, #1
   27322:	f003 fd19 	bl	2ad58 <i2c_probe>
   27326:	2809      	cmp	r0, #9
   27328:	d009      	beq.n	2733e <accel_start+0x22>
   2732a:	2119      	movs	r1, #25
   2732c:	2001      	movs	r0, #1
   2732e:	f003 fd13 	bl	2ad58 <i2c_probe>
   27332:	2809      	cmp	r0, #9
   27334:	d00d      	beq.n	27352 <accel_start+0x36>
   27336:	480c      	ldr	r0, [pc, #48]	; (27368 <accel_start+0x4c>)
   27338:	f002 fc50 	bl	29bdc <panic>
   2733c:	bd08      	pop	{r3, pc}
   2733e:	2323      	movs	r3, #35	; 0x23
   27340:	222a      	movs	r2, #42	; 0x2a
   27342:	211d      	movs	r1, #29
   27344:	2001      	movs	r0, #1
   27346:	f003 fd69 	bl	2ae1c <i2c_write_reg>
   2734a:	4b08      	ldr	r3, [pc, #32]	; (2736c <accel_start+0x50>)
   2734c:	2201      	movs	r2, #1
   2734e:	601a      	str	r2, [r3, #0]
   27350:	e7f4      	b.n	2733c <accel_start+0x20>
   27352:	234f      	movs	r3, #79	; 0x4f
   27354:	2220      	movs	r2, #32
   27356:	2119      	movs	r1, #25
   27358:	2001      	movs	r0, #1
   2735a:	f003 fd5f 	bl	2ae1c <i2c_write_reg>
   2735e:	4b03      	ldr	r3, [pc, #12]	; (2736c <accel_start+0x50>)
   27360:	2202      	movs	r2, #2
   27362:	601a      	str	r2, [r3, #0]
   27364:	e7ea      	b.n	2733c <accel_start+0x20>
   27366:	bf00      	nop
   27368:	0002b524 	.word	0x0002b524
   2736c:	200060a0 	.word	0x200060a0

00027370 <accel_reading>:
   27370:	b570      	push	{r4, r5, r6, lr}
   27372:	b084      	sub	sp, #16
   27374:	4606      	mov	r6, r0
   27376:	460d      	mov	r5, r1
   27378:	4614      	mov	r4, r2
   2737a:	4b19      	ldr	r3, [pc, #100]	; (273e0 <accel_reading+0x70>)
   2737c:	681b      	ldr	r3, [r3, #0]
   2737e:	2b01      	cmp	r3, #1
   27380:	d005      	beq.n	2738e <accel_reading+0x1e>
   27382:	2b02      	cmp	r3, #2
   27384:	d018      	beq.n	273b8 <accel_reading+0x48>
   27386:	4817      	ldr	r0, [pc, #92]	; (273e4 <accel_reading+0x74>)
   27388:	f002 fc28 	bl	29bdc <panic>
   2738c:	e012      	b.n	273b4 <accel_reading+0x44>
   2738e:	2303      	movs	r3, #3
   27390:	9300      	str	r3, [sp, #0]
   27392:	ab02      	add	r3, sp, #8
   27394:	2201      	movs	r2, #1
   27396:	211d      	movs	r1, #29
   27398:	4610      	mov	r0, r2
   2739a:	f003 fcef 	bl	2ad7c <i2c_read_bytes>
   2739e:	f99d 3008 	ldrsb.w	r3, [sp, #8]
   273a2:	425b      	negs	r3, r3
   273a4:	6033      	str	r3, [r6, #0]
   273a6:	f99d 3009 	ldrsb.w	r3, [sp, #9]
   273aa:	602b      	str	r3, [r5, #0]
   273ac:	f99d 300a 	ldrsb.w	r3, [sp, #10]
   273b0:	425b      	negs	r3, r3
   273b2:	6023      	str	r3, [r4, #0]
   273b4:	b004      	add	sp, #16
   273b6:	bd70      	pop	{r4, r5, r6, pc}
   273b8:	2306      	movs	r3, #6
   273ba:	9300      	str	r3, [sp, #0]
   273bc:	ab02      	add	r3, sp, #8
   273be:	22a8      	movs	r2, #168	; 0xa8
   273c0:	2119      	movs	r1, #25
   273c2:	2001      	movs	r0, #1
   273c4:	f003 fcda 	bl	2ad7c <i2c_read_bytes>
   273c8:	f99d 3009 	ldrsb.w	r3, [sp, #9]
   273cc:	6033      	str	r3, [r6, #0]
   273ce:	f99d 300b 	ldrsb.w	r3, [sp, #11]
   273d2:	602b      	str	r3, [r5, #0]
   273d4:	f99d 300d 	ldrsb.w	r3, [sp, #13]
   273d8:	425b      	negs	r3, r3
   273da:	6023      	str	r3, [r4, #0]
   273dc:	e7ea      	b.n	273b4 <accel_reading+0x44>
   273de:	bf00      	nop
   273e0:	200060a0 	.word	0x200060a0
   273e4:	0002b540 	.word	0x0002b540

000273e8 <PCF8563__read>:
   273e8:	b508      	push	{r3, lr}
   273ea:	4602      	mov	r2, r0
   273ec:	2151      	movs	r1, #81	; 0x51
   273ee:	2000      	movs	r0, #0
   273f0:	f003 fce6 	bl	2adc0 <i2c_read_reg>
   273f4:	b2c0      	uxtb	r0, r0
   273f6:	bd08      	pop	{r3, pc}

000273f8 <PCF8563__checkClockIntegrity>:
   273f8:	b508      	push	{r3, lr}
   273fa:	2002      	movs	r0, #2
   273fc:	f7ff fff4 	bl	273e8 <PCF8563__read>
   27400:	43c0      	mvns	r0, r0
   27402:	f3c0 10c0 	ubfx	r0, r0, #7, #1
   27406:	bd08      	pop	{r3, pc}

00027408 <PCF8563__getTime>:
   27408:	e92d 47f0 	stmdb	sp!, {r4, r5, r6, r7, r8, r9, sl, lr}
   2740c:	4604      	mov	r4, r0
   2740e:	2008      	movs	r0, #8
   27410:	f7ff ffea 	bl	273e8 <PCF8563__read>
   27414:	4606      	mov	r6, r0
   27416:	2007      	movs	r0, #7
   27418:	f7ff ffe6 	bl	273e8 <PCF8563__read>
   2741c:	4605      	mov	r5, r0
   2741e:	2005      	movs	r0, #5
   27420:	f7ff ffe2 	bl	273e8 <PCF8563__read>
   27424:	4681      	mov	r9, r0
   27426:	2006      	movs	r0, #6
   27428:	f7ff ffde 	bl	273e8 <PCF8563__read>
   2742c:	4682      	mov	sl, r0
   2742e:	2004      	movs	r0, #4
   27430:	f7ff ffda 	bl	273e8 <PCF8563__read>
   27434:	4680      	mov	r8, r0
   27436:	2003      	movs	r0, #3
   27438:	f7ff ffd6 	bl	273e8 <PCF8563__read>
   2743c:	4607      	mov	r7, r0
   2743e:	2002      	movs	r0, #2
   27440:	f7ff ffd2 	bl	273e8 <PCF8563__read>
   27444:	4603      	mov	r3, r0
   27446:	0930      	lsrs	r0, r6, #4
   27448:	eb00 0080 	add.w	r0, r0, r0, lsl #2
   2744c:	f006 060f 	and.w	r6, r6, #15
   27450:	eb06 0640 	add.w	r6, r6, r0, lsl #1
   27454:	7026      	strb	r6, [r4, #0]
   27456:	f3c5 1200 	ubfx	r2, r5, #4, #1
   2745a:	0091      	lsls	r1, r2, #2
   2745c:	440a      	add	r2, r1
   2745e:	f005 050f 	and.w	r5, r5, #15
   27462:	eb05 0542 	add.w	r5, r5, r2, lsl #1
   27466:	7065      	strb	r5, [r4, #1]
   27468:	f3c9 1001 	ubfx	r0, r9, #4, #2
   2746c:	eb00 0080 	add.w	r0, r0, r0, lsl #2
   27470:	f009 090f 	and.w	r9, r9, #15
   27474:	eb09 0940 	add.w	r9, r9, r0, lsl #1
   27478:	f884 9002 	strb.w	r9, [r4, #2]
   2747c:	f00a 0a07 	and.w	sl, sl, #7
   27480:	f884 a003 	strb.w	sl, [r4, #3]
   27484:	f3c8 1001 	ubfx	r0, r8, #4, #2
   27488:	eb00 0080 	add.w	r0, r0, r0, lsl #2
   2748c:	f008 080f 	and.w	r8, r8, #15
   27490:	eb08 0840 	add.w	r8, r8, r0, lsl #1
   27494:	f884 8004 	strb.w	r8, [r4, #4]
   27498:	f3c7 1002 	ubfx	r0, r7, #4, #3
   2749c:	eb00 0080 	add.w	r0, r0, r0, lsl #2
   274a0:	f007 070f 	and.w	r7, r7, #15
   274a4:	eb07 0740 	add.w	r7, r7, r0, lsl #1
   274a8:	7167      	strb	r7, [r4, #5]
   274aa:	f3c3 1002 	ubfx	r0, r3, #4, #3
   274ae:	eb00 0080 	add.w	r0, r0, r0, lsl #2
   274b2:	f003 030f 	and.w	r3, r3, #15
   274b6:	eb03 0340 	add.w	r3, r3, r0, lsl #1
   274ba:	71a3      	strb	r3, [r4, #6]
   274bc:	e8bd 87f0 	ldmia.w	sp!, {r4, r5, r6, r7, r8, r9, sl, pc}

000274c0 <bcd_to_number>:
   274c0:	eb00 0080 	add.w	r0, r0, r0, lsl #2
   274c4:	eb01 0040 	add.w	r0, r1, r0, lsl #1
   274c8:	b2c0      	uxtb	r0, r0
   274ca:	4770      	bx	lr

000274cc <get_first_number>:
   274cc:	4b04      	ldr	r3, [pc, #16]	; (274e0 <get_first_number+0x14>)
   274ce:	fba3 2300 	umull	r2, r3, r3, r0
   274d2:	08db      	lsrs	r3, r3, #3
   274d4:	eb03 0383 	add.w	r3, r3, r3, lsl #2
   274d8:	eba0 0043 	sub.w	r0, r0, r3, lsl #1
   274dc:	b2c0      	uxtb	r0, r0
   274de:	4770      	bx	lr
   274e0:	cccccccd 	.word	0xcccccccd

000274e4 <get_second_number>:
   274e4:	4b02      	ldr	r3, [pc, #8]	; (274f0 <get_second_number+0xc>)
   274e6:	fba3 3000 	umull	r3, r0, r3, r0
   274ea:	f3c0 00c7 	ubfx	r0, r0, #3, #8
   274ee:	4770      	bx	lr
   274f0:	cccccccd 	.word	0xcccccccd

000274f4 <PCF8563__write>:
   274f4:	b508      	push	{r3, lr}
   274f6:	4602      	mov	r2, r0
   274f8:	460b      	mov	r3, r1
   274fa:	2151      	movs	r1, #81	; 0x51
   274fc:	2000      	movs	r0, #0
   274fe:	f003 fc8d 	bl	2ae1c <i2c_write_reg>
   27502:	bd08      	pop	{r3, pc}

00027504 <PCF8563__setYear>:
   27504:	b508      	push	{r3, lr}
   27506:	4b08      	ldr	r3, [pc, #32]	; (27528 <PCF8563__setYear+0x24>)
   27508:	fba3 2300 	umull	r2, r3, r3, r0
   2750c:	08d9      	lsrs	r1, r3, #3
   2750e:	460b      	mov	r3, r1
   27510:	eb01 0181 	add.w	r1, r1, r1, lsl #2
   27514:	eba0 0041 	sub.w	r0, r0, r1, lsl #1
   27518:	ea40 1103 	orr.w	r1, r0, r3, lsl #4
   2751c:	b2c9      	uxtb	r1, r1
   2751e:	2008      	movs	r0, #8
   27520:	f7ff ffe8 	bl	274f4 <PCF8563__write>
   27524:	bd08      	pop	{r3, pc}
   27526:	bf00      	nop
   27528:	cccccccd 	.word	0xcccccccd

0002752c <PCF8563__setMonth>:
   2752c:	b508      	push	{r3, lr}
   2752e:	4b08      	ldr	r3, [pc, #32]	; (27550 <PCF8563__setMonth+0x24>)
   27530:	fba3 2300 	umull	r2, r3, r3, r0
   27534:	08d9      	lsrs	r1, r3, #3
   27536:	460b      	mov	r3, r1
   27538:	eb01 0181 	add.w	r1, r1, r1, lsl #2
   2753c:	eba0 0041 	sub.w	r0, r0, r1, lsl #1
   27540:	ea40 1103 	orr.w	r1, r0, r3, lsl #4
   27544:	b2c9      	uxtb	r1, r1
   27546:	2007      	movs	r0, #7
   27548:	f7ff ffd4 	bl	274f4 <PCF8563__write>
   2754c:	bd08      	pop	{r3, pc}
   2754e:	bf00      	nop
   27550:	cccccccd 	.word	0xcccccccd

00027554 <PCF8563__setDay>:
   27554:	b508      	push	{r3, lr}
   27556:	4b08      	ldr	r3, [pc, #32]	; (27578 <PCF8563__setDay+0x24>)
   27558:	fba3 2300 	umull	r2, r3, r3, r0
   2755c:	08d9      	lsrs	r1, r3, #3
   2755e:	460b      	mov	r3, r1
   27560:	eb01 0181 	add.w	r1, r1, r1, lsl #2
   27564:	eba0 0041 	sub.w	r0, r0, r1, lsl #1
   27568:	ea40 1103 	orr.w	r1, r0, r3, lsl #4
   2756c:	b2c9      	uxtb	r1, r1
   2756e:	2005      	movs	r0, #5
   27570:	f7ff ffc0 	bl	274f4 <PCF8563__write>
   27574:	bd08      	pop	{r3, pc}
   27576:	bf00      	nop
   27578:	cccccccd 	.word	0xcccccccd

0002757c <PCF8563__setHour>:
   2757c:	b508      	push	{r3, lr}
   2757e:	4b08      	ldr	r3, [pc, #32]	; (275a0 <PCF8563__setHour+0x24>)
   27580:	fba3 2300 	umull	r2, r3, r3, r0
   27584:	08d9      	lsrs	r1, r3, #3
   27586:	460b      	mov	r3, r1
   27588:	eb01 0181 	add.w	r1, r1, r1, lsl #2
   2758c:	eba0 0041 	sub.w	r0, r0, r1, lsl #1
   27590:	ea40 1103 	orr.w	r1, r0, r3, lsl #4
   27594:	b2c9      	uxtb	r1, r1
   27596:	2004      	movs	r0, #4
   27598:	f7ff ffac 	bl	274f4 <PCF8563__write>
   2759c:	bd08      	pop	{r3, pc}
   2759e:	bf00      	nop
   275a0:	cccccccd 	.word	0xcccccccd

000275a4 <PCF8563__setMinut>:
   275a4:	b508      	push	{r3, lr}
   275a6:	4b08      	ldr	r3, [pc, #32]	; (275c8 <PCF8563__setMinut+0x24>)
   275a8:	fba3 2300 	umull	r2, r3, r3, r0
   275ac:	08d9      	lsrs	r1, r3, #3
   275ae:	460b      	mov	r3, r1
   275b0:	eb01 0181 	add.w	r1, r1, r1, lsl #2
   275b4:	eba0 0041 	sub.w	r0, r0, r1, lsl #1
   275b8:	ea40 1103 	orr.w	r1, r0, r3, lsl #4
   275bc:	b2c9      	uxtb	r1, r1
   275be:	2003      	movs	r0, #3
   275c0:	f7ff ff98 	bl	274f4 <PCF8563__write>
   275c4:	bd08      	pop	{r3, pc}
   275c6:	bf00      	nop
   275c8:	cccccccd 	.word	0xcccccccd

000275cc <PCF8563__setSecond>:
   275cc:	b508      	push	{r3, lr}
   275ce:	4b08      	ldr	r3, [pc, #32]	; (275f0 <PCF8563__setSecond+0x24>)
   275d0:	fba3 2300 	umull	r2, r3, r3, r0
   275d4:	08d9      	lsrs	r1, r3, #3
   275d6:	460b      	mov	r3, r1
   275d8:	eb01 0181 	add.w	r1, r1, r1, lsl #2
   275dc:	eba0 0041 	sub.w	r0, r0, r1, lsl #1
   275e0:	ea40 1103 	orr.w	r1, r0, r3, lsl #4
   275e4:	b2c9      	uxtb	r1, r1
   275e6:	2002      	movs	r0, #2
   275e8:	f7ff ff84 	bl	274f4 <PCF8563__write>
   275ec:	bd08      	pop	{r3, pc}
   275ee:	bf00      	nop
   275f0:	cccccccd 	.word	0xcccccccd

000275f4 <PCF8563__write_OR>:
   275f4:	b538      	push	{r3, r4, r5, lr}
   275f6:	4604      	mov	r4, r0
   275f8:	460d      	mov	r5, r1
   275fa:	f7ff fef5 	bl	273e8 <PCF8563__read>
   275fe:	ea40 0105 	orr.w	r1, r0, r5
   27602:	b2c9      	uxtb	r1, r1
   27604:	4620      	mov	r0, r4
   27606:	f7ff ff75 	bl	274f4 <PCF8563__write>
   2760a:	bd38      	pop	{r3, r4, r5, pc}

0002760c <PCF8563__stopClock>:
   2760c:	b508      	push	{r3, lr}
   2760e:	2120      	movs	r1, #32
   27610:	2000      	movs	r0, #0
   27612:	f7ff ffef 	bl	275f4 <PCF8563__write_OR>
   27616:	bd08      	pop	{r3, pc}

00027618 <PCF8563__enableClkOutput>:
   27618:	b508      	push	{r3, lr}
   2761a:	2180      	movs	r1, #128	; 0x80
   2761c:	200d      	movs	r0, #13
   2761e:	f7ff ffe9 	bl	275f4 <PCF8563__write_OR>
   27622:	bd08      	pop	{r3, pc}

00027624 <PCF8563__write_AND>:
   27624:	b538      	push	{r3, r4, r5, lr}
   27626:	4604      	mov	r4, r0
   27628:	460d      	mov	r5, r1
   2762a:	f7ff fedd 	bl	273e8 <PCF8563__read>
   2762e:	ea00 0105 	and.w	r1, r0, r5
   27632:	4620      	mov	r0, r4
   27634:	f7ff ff5e 	bl	274f4 <PCF8563__write>
   27638:	bd38      	pop	{r3, r4, r5, pc}

0002763a <PCF8563__init>:
   2763a:	b508      	push	{r3, lr}
   2763c:	21f7      	movs	r1, #247	; 0xf7
   2763e:	2000      	movs	r0, #0
   27640:	f7ff fff0 	bl	27624 <PCF8563__write_AND>
   27644:	217f      	movs	r1, #127	; 0x7f
   27646:	200d      	movs	r0, #13
   27648:	f7ff ffec 	bl	27624 <PCF8563__write_AND>
   2764c:	bd08      	pop	{r3, pc}

0002764e <PCF8563__startClock>:
   2764e:	b508      	push	{r3, lr}
   27650:	21df      	movs	r1, #223	; 0xdf
   27652:	2000      	movs	r0, #0
   27654:	f7ff ffe6 	bl	27624 <PCF8563__write_AND>
   27658:	bd08      	pop	{r3, pc}

0002765a <PCF8563__disableClkOutput>:
   2765a:	b508      	push	{r3, lr}
   2765c:	217f      	movs	r1, #127	; 0x7f
   2765e:	200d      	movs	r0, #13
   27660:	f7ff ffe0 	bl	27624 <PCF8563__write_AND>
   27664:	bd08      	pop	{r3, pc}

00027666 <PCF8563__setClkOutputFrequency>:
   27666:	b508      	push	{r3, lr}
   27668:	2803      	cmp	r0, #3
   2766a:	d807      	bhi.n	2767c <PCF8563__setClkOutputFrequency+0x16>
   2766c:	e8df f000 	tbb	[pc, r0]
   27670:	19100702 	.word	0x19100702
   27674:	21fc      	movs	r1, #252	; 0xfc
   27676:	200d      	movs	r0, #13
   27678:	f7ff ffd4 	bl	27624 <PCF8563__write_AND>
   2767c:	bd08      	pop	{r3, pc}
   2767e:	21fd      	movs	r1, #253	; 0xfd
   27680:	200d      	movs	r0, #13
   27682:	f7ff ffcf 	bl	27624 <PCF8563__write_AND>
   27686:	2101      	movs	r1, #1
   27688:	200d      	movs	r0, #13
   2768a:	f7ff ffb3 	bl	275f4 <PCF8563__write_OR>
   2768e:	e7f5      	b.n	2767c <PCF8563__setClkOutputFrequency+0x16>
   27690:	21fe      	movs	r1, #254	; 0xfe
   27692:	200d      	movs	r0, #13
   27694:	f7ff ffc6 	bl	27624 <PCF8563__write_AND>
   27698:	2102      	movs	r1, #2
   2769a:	200d      	movs	r0, #13
   2769c:	f7ff ffaa 	bl	275f4 <PCF8563__write_OR>
   276a0:	e7ec      	b.n	2767c <PCF8563__setClkOutputFrequency+0x16>
   276a2:	2103      	movs	r1, #3
   276a4:	200d      	movs	r0, #13
   276a6:	f7ff ffa5 	bl	275f4 <PCF8563__write_OR>
   276aa:	e7e7      	b.n	2767c <PCF8563__setClkOutputFrequency+0x16>

000276ac <usbd_edpt_claim.constprop.0>:
   276ac:	4b0b      	ldr	r3, [pc, #44]	; (276dc <usbd_edpt_claim.constprop.0+0x30>)
   276ae:	f000 027f 	and.w	r2, r0, #127	; 0x7f
   276b2:	eb03 0342 	add.w	r3, r3, r2, lsl #1
   276b6:	eb03 13d0 	add.w	r3, r3, r0, lsr #7
   276ba:	3320      	adds	r3, #32
   276bc:	7958      	ldrb	r0, [r3, #5]
   276be:	f010 0001 	ands.w	r0, r0, #1
   276c2:	d108      	bne.n	276d6 <usbd_edpt_claim.constprop.0+0x2a>
   276c4:	795a      	ldrb	r2, [r3, #5]
   276c6:	0752      	lsls	r2, r2, #29
   276c8:	d406      	bmi.n	276d8 <usbd_edpt_claim.constprop.0+0x2c>
   276ca:	795a      	ldrb	r2, [r3, #5]
   276cc:	f042 0204 	orr.w	r2, r2, #4
   276d0:	715a      	strb	r2, [r3, #5]
   276d2:	2001      	movs	r0, #1
   276d4:	4770      	bx	lr
   276d6:	2000      	movs	r0, #0
   276d8:	4770      	bx	lr
   276da:	bf00      	nop
   276dc:	200060a4 	.word	0x200060a4

000276e0 <usbd_edpt_release.constprop.0>:
   276e0:	4b0b      	ldr	r3, [pc, #44]	; (27710 <usbd_edpt_release.constprop.0+0x30>)
   276e2:	f000 027f 	and.w	r2, r0, #127	; 0x7f
   276e6:	eb03 0342 	add.w	r3, r3, r2, lsl #1
   276ea:	eb03 13d0 	add.w	r3, r3, r0, lsr #7
   276ee:	3320      	adds	r3, #32
   276f0:	795a      	ldrb	r2, [r3, #5]
   276f2:	f3c2 0080 	ubfx	r0, r2, #2, #1
   276f6:	0752      	lsls	r2, r2, #29
   276f8:	d509      	bpl.n	2770e <usbd_edpt_release.constprop.0+0x2e>
   276fa:	795a      	ldrb	r2, [r3, #5]
   276fc:	f012 0101 	ands.w	r1, r2, #1
   27700:	d104      	bne.n	2770c <usbd_edpt_release.constprop.0+0x2c>
   27702:	795a      	ldrb	r2, [r3, #5]
   27704:	f361 0282 	bfi	r2, r1, #2, #1
   27708:	715a      	strb	r2, [r3, #5]
   2770a:	4770      	bx	lr
   2770c:	2000      	movs	r0, #0
   2770e:	4770      	bx	lr
   27710:	200060a4 	.word	0x200060a4

00027714 <nrf_power_event_get_and_clear.constprop.0>:
   27714:	f100 4380 	add.w	r3, r0, #1073741824	; 0x40000000
   27718:	b082      	sub	sp, #8
   2771a:	681a      	ldr	r2, [r3, #0]
   2771c:	2a00      	cmp	r2, #0
   2771e:	bf14      	ite	ne
   27720:	2001      	movne	r0, #1
   27722:	2000      	moveq	r0, #0
   27724:	d004      	beq.n	27730 <nrf_power_event_get_and_clear.constprop.0+0x1c>
   27726:	2200      	movs	r2, #0
   27728:	601a      	str	r2, [r3, #0]
   2772a:	681b      	ldr	r3, [r3, #0]
   2772c:	9301      	str	r3, [sp, #4]
   2772e:	9b01      	ldr	r3, [sp, #4]
   27730:	b002      	add	sp, #8
   27732:	4770      	bx	lr

00027734 <rx_done_event.constprop.0>:
   27734:	b51f      	push	{r0, r1, r2, r3, r4, lr}
   27736:	2301      	movs	r3, #1
   27738:	f88d 3000 	strb.w	r3, [sp]
   2773c:	4b04      	ldr	r3, [pc, #16]	; (27750 <rx_done_event.constprop.0+0x1c>)
   2773e:	e9cd 1001 	strd	r1, r0, [sp, #4]
   27742:	e9d3 120e 	ldrd	r1, r2, [r3, #56]	; 0x38
   27746:	4668      	mov	r0, sp
   27748:	4790      	blx	r2
   2774a:	b005      	add	sp, #20
   2774c:	f85d fb04 	ldr.w	pc, [sp], #4
   27750:	200060a4 	.word	0x200060a4

00027754 <tu_fifo_clear>:
   27754:	2300      	movs	r3, #0
   27756:	81c3      	strh	r3, [r0, #14]
   27758:	8203      	strh	r3, [r0, #16]
   2775a:	8883      	ldrh	r3, [r0, #4]
   2775c:	005b      	lsls	r3, r3, #1
   2775e:	b29b      	uxth	r3, r3
   27760:	1e5a      	subs	r2, r3, #1
   27762:	425b      	negs	r3, r3
   27764:	8182      	strh	r2, [r0, #12]
   27766:	8143      	strh	r3, [r0, #10]
   27768:	2001      	movs	r0, #1
   2776a:	4770      	bx	lr

0002776c <tu_fifo_count>:
   2776c:	89c1      	ldrh	r1, [r0, #14]
   2776e:	8a02      	ldrh	r2, [r0, #16]
   27770:	b289      	uxth	r1, r1
   27772:	b292      	uxth	r2, r2
   27774:	4291      	cmp	r1, r2
   27776:	eba1 0302 	sub.w	r3, r1, r2
   2777a:	bf38      	it	cc
   2777c:	8942      	ldrhcc	r2, [r0, #10]
   2777e:	8880      	ldrh	r0, [r0, #4]
   27780:	b29b      	uxth	r3, r3
   27782:	bf3c      	itt	cc
   27784:	1a9b      	subcc	r3, r3, r2
   27786:	b29b      	uxthcc	r3, r3
   27788:	4298      	cmp	r0, r3
   2778a:	bf28      	it	cs
   2778c:	4618      	movcs	r0, r3
   2778e:	4770      	bx	lr

00027790 <hfclk_running>:
   27790:	f04f 4380 	mov.w	r3, #1073741824	; 0x40000000
   27794:	f8d3 240c 	ldr.w	r2, [r3, #1036]	; 0x40c
   27798:	f8d3 040c 	ldr.w	r0, [r3, #1036]	; 0x40c
   2779c:	f410 3080 	ands.w	r0, r0, #65536	; 0x10000
   277a0:	bf18      	it	ne
   277a2:	f002 0001 	andne.w	r0, r2, #1
   277a6:	4770      	bx	lr

000277a8 <nrf52_errata_166>:
   277a8:	4b06      	ldr	r3, [pc, #24]	; (277c4 <nrf52_errata_166+0x1c>)
   277aa:	6818      	ldr	r0, [r3, #0]
   277ac:	3b04      	subs	r3, #4
   277ae:	681b      	ldr	r3, [r3, #0]
   277b0:	2b08      	cmp	r3, #8
   277b2:	d104      	bne.n	277be <nrf52_errata_166+0x16>
   277b4:	2803      	cmp	r0, #3
   277b6:	bf8c      	ite	hi
   277b8:	2000      	movhi	r0, #0
   277ba:	2001      	movls	r0, #1
   277bc:	4770      	bx	lr
   277be:	2000      	movs	r0, #0
   277c0:	4770      	bx	lr
   277c2:	bf00      	nop
   277c4:	10000134 	.word	0x10000134

000277c8 <tud_init.part.0>:
   277c8:	4b03      	ldr	r3, [pc, #12]	; (277d8 <tud_init.part.0+0x10>)
   277ca:	681b      	ldr	r3, [r3, #0]
   277cc:	07db      	lsls	r3, r3, #31
   277ce:	d500      	bpl.n	277d2 <tud_init.part.0+0xa>
   277d0:	be00      	bkpt	0x0000
   277d2:	2000      	movs	r0, #0
   277d4:	4770      	bx	lr
   277d6:	bf00      	nop
   277d8:	e000edf0 	.word	0xe000edf0

000277dc <usbd_edpt_open.constprop.0>:
   277dc:	b470      	push	{r4, r5, r6}
   277de:	7882      	ldrb	r2, [r0, #2]
   277e0:	f002 037f 	and.w	r3, r2, #127	; 0x7f
   277e4:	2b08      	cmp	r3, #8
   277e6:	d907      	bls.n	277f8 <usbd_edpt_open.constprop.0+0x1c>
   277e8:	4b53      	ldr	r3, [pc, #332]	; (27938 <usbd_edpt_open.constprop.0+0x15c>)
   277ea:	681b      	ldr	r3, [r3, #0]
   277ec:	07db      	lsls	r3, r3, #31
   277ee:	d500      	bpl.n	277f2 <usbd_edpt_open.constprop.0+0x16>
   277f0:	be00      	bkpt	0x0000
   277f2:	2000      	movs	r0, #0
   277f4:	bc70      	pop	{r4, r5, r6}
   277f6:	4770      	bx	lr
   277f8:	78c5      	ldrb	r5, [r0, #3]
   277fa:	4c50      	ldr	r4, [pc, #320]	; (2793c <usbd_edpt_open.constprop.0+0x160>)
   277fc:	8881      	ldrh	r1, [r0, #4]
   277fe:	78a6      	ldrb	r6, [r4, #2]
   27800:	f005 0503 	and.w	r5, r5, #3
   27804:	2d02      	cmp	r5, #2
   27806:	f3c1 010a 	ubfx	r1, r1, #0, #11
   2780a:	d012      	beq.n	27832 <usbd_edpt_open.constprop.0+0x56>
   2780c:	2d03      	cmp	r5, #3
   2780e:	d045      	beq.n	2789c <usbd_edpt_open.constprop.0+0xc0>
   27810:	2d01      	cmp	r5, #1
   27812:	d10c      	bne.n	2782e <usbd_edpt_open.constprop.0+0x52>
   27814:	2e02      	cmp	r6, #2
   27816:	f240 35ff 	movw	r5, #1023	; 0x3ff
   2781a:	bf08      	it	eq
   2781c:	f44f 6580 	moveq.w	r5, #1024	; 0x400
   27820:	42a9      	cmp	r1, r5
   27822:	d90b      	bls.n	2783c <usbd_edpt_open.constprop.0+0x60>
   27824:	4b44      	ldr	r3, [pc, #272]	; (27938 <usbd_edpt_open.constprop.0+0x15c>)
   27826:	681b      	ldr	r3, [r3, #0]
   27828:	07da      	lsls	r2, r3, #31
   2782a:	d500      	bpl.n	2782e <usbd_edpt_open.constprop.0+0x52>
   2782c:	be00      	bkpt	0x0000
   2782e:	bc70      	pop	{r4, r5, r6}
   27830:	e7ca      	b.n	277c8 <tud_init.part.0>
   27832:	2e02      	cmp	r6, #2
   27834:	d12f      	bne.n	27896 <usbd_edpt_open.constprop.0+0xba>
   27836:	f5b1 7f00 	cmp.w	r1, #512	; 0x200
   2783a:	d1f3      	bne.n	27824 <usbd_edpt_open.constprop.0+0x48>
   2783c:	005d      	lsls	r5, r3, #1
   2783e:	eb05 15d2 	add.w	r5, r5, r2, lsr #7
   27842:	eb04 1505 	add.w	r5, r4, r5, lsl #4
   27846:	09d6      	lsrs	r6, r2, #7
   27848:	f8a5 1064 	strh.w	r1, [r5, #100]	; 0x64
   2784c:	78c1      	ldrb	r1, [r0, #3]
   2784e:	f001 0103 	and.w	r1, r1, #3
   27852:	2901      	cmp	r1, #1
   27854:	d034      	beq.n	278c0 <usbd_edpt_open.constprop.0+0xe4>
   27856:	2001      	movs	r0, #1
   27858:	4939      	ldr	r1, [pc, #228]	; (27940 <usbd_edpt_open.constprop.0+0x164>)
   2785a:	fa00 f403 	lsl.w	r4, r0, r3
   2785e:	bb2e      	cbnz	r6, 278ac <usbd_edpt_open.constprop.0+0xd0>
   27860:	f103 050c 	add.w	r5, r3, #12
   27864:	40a8      	lsls	r0, r5
   27866:	f8c1 0304 	str.w	r0, [r1, #772]	; 0x304
   2786a:	f8d1 0514 	ldr.w	r0, [r1, #1300]	; 0x514
   2786e:	f503 7394 	add.w	r3, r3, #296	; 0x128
   27872:	4304      	orrs	r4, r0
   27874:	f8c1 4514 	str.w	r4, [r1, #1300]	; 0x514
   27878:	f841 6023 	str.w	r6, [r1, r3, lsl #2]
   2787c:	4b30      	ldr	r3, [pc, #192]	; (27940 <usbd_edpt_open.constprop.0+0x164>)
   2787e:	f8c3 2518 	str.w	r2, [r3, #1304]	; 0x518
   27882:	f442 7280 	orr.w	r2, r2, #256	; 0x100
   27886:	f8c3 250c 	str.w	r2, [r3, #1292]	; 0x50c
   2788a:	f3bf 8f6f 	isb	sy
   2788e:	f3bf 8f4f 	dsb	sy
   27892:	2001      	movs	r0, #1
   27894:	e7ae      	b.n	277f4 <usbd_edpt_open.constprop.0+0x18>
   27896:	2940      	cmp	r1, #64	; 0x40
   27898:	d9d0      	bls.n	2783c <usbd_edpt_open.constprop.0+0x60>
   2789a:	e7c3      	b.n	27824 <usbd_edpt_open.constprop.0+0x48>
   2789c:	2e02      	cmp	r6, #2
   2789e:	bf0c      	ite	eq
   278a0:	f44f 6580 	moveq.w	r5, #1024	; 0x400
   278a4:	2540      	movne	r5, #64	; 0x40
   278a6:	42a9      	cmp	r1, r5
   278a8:	d9c8      	bls.n	2783c <usbd_edpt_open.constprop.0+0x60>
   278aa:	e7bb      	b.n	27824 <usbd_edpt_open.constprop.0+0x48>
   278ac:	3302      	adds	r3, #2
   278ae:	4098      	lsls	r0, r3
   278b0:	f8c1 0304 	str.w	r0, [r1, #772]	; 0x304
   278b4:	f8d1 3510 	ldr.w	r3, [r1, #1296]	; 0x510
   278b8:	431c      	orrs	r4, r3
   278ba:	f8c1 4510 	str.w	r4, [r1, #1296]	; 0x510
   278be:	e7dd      	b.n	2787c <usbd_edpt_open.constprop.0+0xa0>
   278c0:	2b08      	cmp	r3, #8
   278c2:	d191      	bne.n	277e8 <usbd_edpt_open.constprop.0+0xc>
   278c4:	4b1e      	ldr	r3, [pc, #120]	; (27940 <usbd_edpt_open.constprop.0+0x164>)
   278c6:	b9de      	cbnz	r6, 27900 <usbd_edpt_open.constprop.0+0x124>
   278c8:	f8b4 1174 	ldrh.w	r1, [r4, #372]	; 0x174
   278cc:	b111      	cbz	r1, 278d4 <usbd_edpt_open.constprop.0+0xf8>
   278ce:	2180      	movs	r1, #128	; 0x80
   278d0:	f8c3 151c 	str.w	r1, [r3, #1308]	; 0x51c
   278d4:	2100      	movs	r1, #0
   278d6:	f8c3 1150 	str.w	r1, [r3, #336]	; 0x150
   278da:	f8d3 1300 	ldr.w	r1, [r3, #768]	; 0x300
   278de:	f411 1100 	ands.w	r1, r1, #2097152	; 0x200000
   278e2:	bf08      	it	eq
   278e4:	f8c3 1154 	streq.w	r1, [r3, #340]	; 0x154
   278e8:	4b15      	ldr	r3, [pc, #84]	; (27940 <usbd_edpt_open.constprop.0+0x164>)
   278ea:	f44f 1140 	mov.w	r1, #3145728	; 0x300000
   278ee:	f8c3 1304 	str.w	r1, [r3, #772]	; 0x304
   278f2:	f8d3 1514 	ldr.w	r1, [r3, #1300]	; 0x514
   278f6:	f441 7180 	orr.w	r1, r1, #256	; 0x100
   278fa:	f8c3 1514 	str.w	r1, [r3, #1300]	; 0x514
   278fe:	e7bd      	b.n	2787c <usbd_edpt_open.constprop.0+0xa0>
   27900:	2100      	movs	r1, #0
   27902:	f8c3 112c 	str.w	r1, [r3, #300]	; 0x12c
   27906:	f8b4 1164 	ldrh.w	r1, [r4, #356]	; 0x164
   2790a:	b111      	cbz	r1, 27912 <usbd_edpt_open.constprop.0+0x136>
   2790c:	2180      	movs	r1, #128	; 0x80
   2790e:	f8c3 151c 	str.w	r1, [r3, #1308]	; 0x51c
   27912:	4b0b      	ldr	r3, [pc, #44]	; (27940 <usbd_edpt_open.constprop.0+0x164>)
   27914:	f8d3 1300 	ldr.w	r1, [r3, #768]	; 0x300
   27918:	f411 1100 	ands.w	r1, r1, #2097152	; 0x200000
   2791c:	bf08      	it	eq
   2791e:	f8c3 1154 	streq.w	r1, [r3, #340]	; 0x154
   27922:	4908      	ldr	r1, [pc, #32]	; (27944 <usbd_edpt_open.constprop.0+0x168>)
   27924:	f8c3 1304 	str.w	r1, [r3, #772]	; 0x304
   27928:	f8d3 1510 	ldr.w	r1, [r3, #1296]	; 0x510
   2792c:	f441 7180 	orr.w	r1, r1, #256	; 0x100
   27930:	f8c3 1510 	str.w	r1, [r3, #1296]	; 0x510
   27934:	e7a2      	b.n	2787c <usbd_edpt_open.constprop.0+0xa0>
   27936:	bf00      	nop
   27938:	e000edf0 	.word	0xe000edf0
   2793c:	200060a4 	.word	0x200060a4
   27940:	40027000 	.word	0x40027000
   27944:	00200800 	.word	0x00200800

00027948 <invoke_class_control.isra.0>:
   27948:	680b      	ldr	r3, [r1, #0]
   2794a:	4902      	ldr	r1, [pc, #8]	; (27954 <invoke_class_control.isra.0+0xc>)
   2794c:	f8c1 3190 	str.w	r3, [r1, #400]	; 0x190
   27950:	2101      	movs	r1, #1
   27952:	4718      	bx	r3
   27954:	200060a4 	.word	0x200060a4

00027958 <usbd_int_set>:
   27958:	4b05      	ldr	r3, [pc, #20]	; (27970 <usbd_int_set+0x18>)
   2795a:	2280      	movs	r2, #128	; 0x80
   2795c:	b108      	cbz	r0, 27962 <usbd_int_set+0xa>
   2795e:	605a      	str	r2, [r3, #4]
   27960:	4770      	bx	lr
   27962:	f8c3 2084 	str.w	r2, [r3, #132]	; 0x84
   27966:	f3bf 8f4f 	dsb	sy
   2796a:	f3bf 8f6f 	isb	sy
   2796e:	4770      	bx	lr
   27970:	e000e100 	.word	0xe000e100

00027974 <get_driver>:
   27974:	4b0a      	ldr	r3, [pc, #40]	; (279a0 <get_driver+0x2c>)
   27976:	b16b      	cbz	r3, 27994 <get_driver+0x20>
   27978:	4a0a      	ldr	r2, [pc, #40]	; (279a4 <get_driver+0x30>)
   2797a:	f892 3194 	ldrb.w	r3, [r2, #404]	; 0x194
   2797e:	4283      	cmp	r3, r0
   27980:	d906      	bls.n	27990 <get_driver+0x1c>
   27982:	f8d2 3198 	ldr.w	r3, [r2, #408]	; 0x198
   27986:	eb00 0040 	add.w	r0, r0, r0, lsl #1
   2798a:	eb03 00c0 	add.w	r0, r3, r0, lsl #3
   2798e:	4770      	bx	lr
   27990:	1ac0      	subs	r0, r0, r3
   27992:	b2c0      	uxtb	r0, r0
   27994:	2800      	cmp	r0, #0
   27996:	4804      	ldr	r0, [pc, #16]	; (279a8 <get_driver+0x34>)
   27998:	bf18      	it	ne
   2799a:	2000      	movne	r0, #0
   2799c:	4770      	bx	lr
   2799e:	bf00      	nop
   279a0:	00000000 	.word	0x00000000
   279a4:	200060a4 	.word	0x200060a4
   279a8:	0002b584 	.word	0x0002b584

000279ac <tu_fifo_write>:
   279ac:	b538      	push	{r3, r4, r5, lr}
   279ae:	89c5      	ldrh	r5, [r0, #14]
   279b0:	8a02      	ldrh	r2, [r0, #16]
   279b2:	b2ad      	uxth	r5, r5
   279b4:	b292      	uxth	r2, r2
   279b6:	42aa      	cmp	r2, r5
   279b8:	eba5 0302 	sub.w	r3, r5, r2
   279bc:	bf88      	it	hi
   279be:	8942      	ldrhhi	r2, [r0, #10]
   279c0:	b29b      	uxth	r3, r3
   279c2:	bf88      	it	hi
   279c4:	1a9b      	subhi	r3, r3, r2
   279c6:	8882      	ldrh	r2, [r0, #4]
   279c8:	bf88      	it	hi
   279ca:	b29b      	uxthhi	r3, r3
   279cc:	429a      	cmp	r2, r3
   279ce:	4604      	mov	r4, r0
   279d0:	d119      	bne.n	27a06 <tu_fifo_write+0x5a>
   279d2:	7a00      	ldrb	r0, [r0, #8]
   279d4:	b9b8      	cbnz	r0, 27a06 <tu_fifo_write+0x5a>
   279d6:	bd38      	pop	{r3, r4, r5, pc}
   279d8:	1a9b      	subs	r3, r3, r2
   279da:	b29b      	uxth	r3, r3
   279dc:	4293      	cmp	r3, r2
   279de:	d2fb      	bcs.n	279d8 <tu_fifo_write+0x2c>
   279e0:	88e2      	ldrh	r2, [r4, #6]
   279e2:	6820      	ldr	r0, [r4, #0]
   279e4:	fb02 0003 	mla	r0, r2, r3, r0
   279e8:	f003 fbb2 	bl	2b150 <memcpy>
   279ec:	1c6b      	adds	r3, r5, #1
   279ee:	b29b      	uxth	r3, r3
   279f0:	429d      	cmp	r5, r3
   279f2:	d802      	bhi.n	279fa <tu_fifo_write+0x4e>
   279f4:	89a2      	ldrh	r2, [r4, #12]
   279f6:	429a      	cmp	r2, r3
   279f8:	d202      	bcs.n	27a00 <tu_fifo_write+0x54>
   279fa:	8962      	ldrh	r2, [r4, #10]
   279fc:	4413      	add	r3, r2
   279fe:	b29b      	uxth	r3, r3
   27a00:	81e3      	strh	r3, [r4, #14]
   27a02:	2001      	movs	r0, #1
   27a04:	e7e7      	b.n	279d6 <tu_fifo_write+0x2a>
   27a06:	462b      	mov	r3, r5
   27a08:	e7e8      	b.n	279dc <tu_fifo_write+0x30>

00027a0a <dcd_event_handler>:
   27a0a:	b5f0      	push	{r4, r5, r6, r7, lr}
   27a0c:	7843      	ldrb	r3, [r0, #1]
   27a0e:	4c3f      	ldr	r4, [pc, #252]	; (27b0c <dcd_event_handler+0x102>)
   27a10:	3b02      	subs	r3, #2
   27a12:	b085      	sub	sp, #20
   27a14:	4606      	mov	r6, r0
   27a16:	460d      	mov	r5, r1
   27a18:	2b03      	cmp	r3, #3
   27a1a:	d872      	bhi.n	27b02 <dcd_event_handler+0xf8>
   27a1c:	e8df f003 	tbb	[pc, r3]
   27a20:	2d176f02 	.word	0x2d176f02
   27a24:	7823      	ldrb	r3, [r4, #0]
   27a26:	f8d4 719c 	ldr.w	r7, [r4, #412]	; 0x19c
   27a2a:	f36f 0300 	bfc	r3, #0, #1
   27a2e:	7023      	strb	r3, [r4, #0]
   27a30:	7823      	ldrb	r3, [r4, #0]
   27a32:	2200      	movs	r2, #0
   27a34:	f36f 0341 	bfc	r3, #1, #1
   27a38:	7023      	strb	r3, [r4, #0]
   27a3a:	7062      	strb	r2, [r4, #1]
   27a3c:	7823      	ldrb	r3, [r4, #0]
   27a3e:	f362 0382 	bfi	r3, r2, #2, #1
   27a42:	7023      	strb	r3, [r4, #0]
   27a44:	b971      	cbnz	r1, 27a64 <dcd_event_handler+0x5a>
   27a46:	683b      	ldr	r3, [r7, #0]
   27a48:	4628      	mov	r0, r5
   27a4a:	4798      	blx	r3
   27a4c:	e00a      	b.n	27a64 <dcd_event_handler+0x5a>
   27a4e:	7823      	ldrb	r3, [r4, #0]
   27a50:	07d8      	lsls	r0, r3, #31
   27a52:	d552      	bpl.n	27afa <dcd_event_handler+0xf0>
   27a54:	7823      	ldrb	r3, [r4, #0]
   27a56:	f8d4 719c 	ldr.w	r7, [r4, #412]	; 0x19c
   27a5a:	f043 0304 	orr.w	r3, r3, #4
   27a5e:	7023      	strb	r3, [r4, #0]
   27a60:	2900      	cmp	r1, #0
   27a62:	d0f0      	beq.n	27a46 <dcd_event_handler+0x3c>
   27a64:	4631      	mov	r1, r6
   27a66:	1d38      	adds	r0, r7, #4
   27a68:	f7ff ffa0 	bl	279ac <tu_fifo_write>
   27a6c:	4604      	mov	r4, r0
   27a6e:	2d00      	cmp	r5, #0
   27a70:	d13d      	bne.n	27aee <dcd_event_handler+0xe4>
   27a72:	683b      	ldr	r3, [r7, #0]
   27a74:	2001      	movs	r0, #1
   27a76:	4798      	blx	r3
   27a78:	e039      	b.n	27aee <dcd_event_handler+0xe4>
   27a7a:	7823      	ldrb	r3, [r4, #0]
   27a7c:	07d9      	lsls	r1, r3, #31
   27a7e:	d53c      	bpl.n	27afa <dcd_event_handler+0xf0>
   27a80:	7823      	ldrb	r3, [r4, #0]
   27a82:	f8d4 719c 	ldr.w	r7, [r4, #412]	; 0x19c
   27a86:	f36f 0382 	bfc	r3, #2, #1
   27a8a:	7023      	strb	r3, [r4, #0]
   27a8c:	2d00      	cmp	r5, #0
   27a8e:	d1e9      	bne.n	27a64 <dcd_event_handler+0x5a>
   27a90:	e7d9      	b.n	27a46 <dcd_event_handler+0x3c>
   27a92:	f7ff ff6f 	bl	27974 <get_driver>
   27a96:	b120      	cbz	r0, 27aa2 <dcd_event_handler+0x98>
   27a98:	6943      	ldr	r3, [r0, #20]
   27a9a:	b113      	cbz	r3, 27aa2 <dcd_event_handler+0x98>
   27a9c:	6871      	ldr	r1, [r6, #4]
   27a9e:	7830      	ldrb	r0, [r6, #0]
   27aa0:	4798      	blx	r3
   27aa2:	3701      	adds	r7, #1
   27aa4:	f894 3194 	ldrb.w	r3, [r4, #404]	; 0x194
   27aa8:	b2f8      	uxtb	r0, r7
   27aaa:	4283      	cmp	r3, r0
   27aac:	d2f1      	bcs.n	27a92 <dcd_event_handler+0x88>
   27aae:	7823      	ldrb	r3, [r4, #0]
   27ab0:	075a      	lsls	r2, r3, #29
   27ab2:	d522      	bpl.n	27afa <dcd_event_handler+0xf0>
   27ab4:	7823      	ldrb	r3, [r4, #0]
   27ab6:	f36f 0382 	bfc	r3, #2, #1
   27aba:	7023      	strb	r3, [r4, #0]
   27abc:	2300      	movs	r3, #0
   27abe:	e9cd 3301 	strd	r3, r3, [sp, #4]
   27ac2:	9303      	str	r3, [sp, #12]
   27ac4:	7833      	ldrb	r3, [r6, #0]
   27ac6:	f88d 3004 	strb.w	r3, [sp, #4]
   27aca:	2305      	movs	r3, #5
   27acc:	f8d4 619c 	ldr.w	r6, [r4, #412]	; 0x19c
   27ad0:	f88d 3005 	strb.w	r3, [sp, #5]
   27ad4:	b915      	cbnz	r5, 27adc <dcd_event_handler+0xd2>
   27ad6:	6833      	ldr	r3, [r6, #0]
   27ad8:	4628      	mov	r0, r5
   27ada:	4798      	blx	r3
   27adc:	a901      	add	r1, sp, #4
   27ade:	1d30      	adds	r0, r6, #4
   27ae0:	f7ff ff64 	bl	279ac <tu_fifo_write>
   27ae4:	4604      	mov	r4, r0
   27ae6:	b915      	cbnz	r5, 27aee <dcd_event_handler+0xe4>
   27ae8:	6833      	ldr	r3, [r6, #0]
   27aea:	2001      	movs	r0, #1
   27aec:	4798      	blx	r3
   27aee:	b924      	cbnz	r4, 27afa <dcd_event_handler+0xf0>
   27af0:	4b07      	ldr	r3, [pc, #28]	; (27b10 <dcd_event_handler+0x106>)
   27af2:	681b      	ldr	r3, [r3, #0]
   27af4:	07db      	lsls	r3, r3, #31
   27af6:	d500      	bpl.n	27afa <dcd_event_handler+0xf0>
   27af8:	be00      	bkpt	0x0000
   27afa:	b005      	add	sp, #20
   27afc:	bdf0      	pop	{r4, r5, r6, r7, pc}
   27afe:	2700      	movs	r7, #0
   27b00:	e7d0      	b.n	27aa4 <dcd_event_handler+0x9a>
   27b02:	f8d4 719c 	ldr.w	r7, [r4, #412]	; 0x19c
   27b06:	2900      	cmp	r1, #0
   27b08:	d1ac      	bne.n	27a64 <dcd_event_handler+0x5a>
   27b0a:	e79c      	b.n	27a46 <dcd_event_handler+0x3c>
   27b0c:	200060a4 	.word	0x200060a4
   27b10:	e000edf0 	.word	0xe000edf0

00027b14 <tusb_hal_nrf_power_event>:
   27b14:	2801      	cmp	r0, #1
   27b16:	b51f      	push	{r0, r1, r2, r3, r4, lr}
   27b18:	f000 80b6 	beq.w	27c88 <tusb_hal_nrf_power_event+0x174>
   27b1c:	2802      	cmp	r0, #2
   27b1e:	d04e      	beq.n	27bbe <tusb_hal_nrf_power_event+0xaa>
   27b20:	2800      	cmp	r0, #0
   27b22:	d146      	bne.n	27bb2 <tusb_hal_nrf_power_event+0x9e>
   27b24:	4b71      	ldr	r3, [pc, #452]	; (27cec <tusb_hal_nrf_power_event+0x1d8>)
   27b26:	f8d3 2500 	ldr.w	r2, [r3, #1280]	; 0x500
   27b2a:	2a00      	cmp	r2, #0
   27b2c:	d141      	bne.n	27bb2 <tusb_hal_nrf_power_event+0x9e>
   27b2e:	f44f 0280 	mov.w	r2, #4194304	; 0x400000
   27b32:	f8c3 2308 	str.w	r2, [r3, #776]	; 0x308
   27b36:	f44f 6200 	mov.w	r2, #2048	; 0x800
   27b3a:	f8c3 2400 	str.w	r2, [r3, #1024]	; 0x400
   27b3e:	f3bf 8f6f 	isb	sy
   27b42:	f3bf 8f4f 	dsb	sy
   27b46:	4b6a      	ldr	r3, [pc, #424]	; (27cf0 <tusb_hal_nrf_power_event+0x1dc>)
   27b48:	681b      	ldr	r3, [r3, #0]
   27b4a:	2b08      	cmp	r3, #8
   27b4c:	d111      	bne.n	27b72 <tusb_hal_nrf_power_event+0x5e>
   27b4e:	4b69      	ldr	r3, [pc, #420]	; (27cf4 <tusb_hal_nrf_power_event+0x1e0>)
   27b50:	681a      	ldr	r2, [r3, #0]
   27b52:	2a03      	cmp	r2, #3
   27b54:	d80d      	bhi.n	27b72 <tusb_hal_nrf_power_event+0x5e>
   27b56:	4b68      	ldr	r3, [pc, #416]	; (27cf8 <tusb_hal_nrf_power_event+0x1e4>)
   27b58:	4413      	add	r3, r2
   27b5a:	7e1b      	ldrb	r3, [r3, #24]
   27b5c:	b14b      	cbz	r3, 27b72 <tusb_hal_nrf_power_event+0x5e>
   27b5e:	4b67      	ldr	r3, [pc, #412]	; (27cfc <tusb_hal_nrf_power_event+0x1e8>)
   27b60:	4a67      	ldr	r2, [pc, #412]	; (27d00 <tusb_hal_nrf_power_event+0x1ec>)
   27b62:	6818      	ldr	r0, [r3, #0]
   27b64:	2103      	movs	r1, #3
   27b66:	bb30      	cbnz	r0, 27bb6 <tusb_hal_nrf_power_event+0xa2>
   27b68:	f249 3075 	movw	r0, #37749	; 0x9375
   27b6c:	6018      	str	r0, [r3, #0]
   27b6e:	6011      	str	r1, [r2, #0]
   27b70:	6018      	str	r0, [r3, #0]
   27b72:	f7ff fe19 	bl	277a8 <nrf52_errata_166>
   27b76:	b148      	cbz	r0, 27b8c <tusb_hal_nrf_power_event+0x78>
   27b78:	4b60      	ldr	r3, [pc, #384]	; (27cfc <tusb_hal_nrf_power_event+0x1e8>)
   27b7a:	4a62      	ldr	r2, [pc, #392]	; (27d04 <tusb_hal_nrf_power_event+0x1f0>)
   27b7c:	6818      	ldr	r0, [r3, #0]
   27b7e:	21c0      	movs	r1, #192	; 0xc0
   27b80:	b9d8      	cbnz	r0, 27bba <tusb_hal_nrf_power_event+0xa6>
   27b82:	f249 3075 	movw	r0, #37749	; 0x9375
   27b86:	6018      	str	r0, [r3, #0]
   27b88:	6011      	str	r1, [r2, #0]
   27b8a:	6018      	str	r0, [r3, #0]
   27b8c:	4b57      	ldr	r3, [pc, #348]	; (27cec <tusb_hal_nrf_power_event+0x1d8>)
   27b8e:	2101      	movs	r1, #1
   27b90:	f8c3 1500 	str.w	r1, [r3, #1280]	; 0x500
   27b94:	f3bf 8f6f 	isb	sy
   27b98:	f3bf 8f4f 	dsb	sy
   27b9c:	f7ff fdf8 	bl	27790 <hfclk_running>
   27ba0:	b938      	cbnz	r0, 27bb2 <tusb_hal_nrf_power_event+0x9e>
   27ba2:	4b59      	ldr	r3, [pc, #356]	; (27d08 <tusb_hal_nrf_power_event+0x1f4>)
   27ba4:	6018      	str	r0, [r3, #0]
   27ba6:	681b      	ldr	r3, [r3, #0]
   27ba8:	9301      	str	r3, [sp, #4]
   27baa:	9b01      	ldr	r3, [sp, #4]
   27bac:	f04f 4380 	mov.w	r3, #1073741824	; 0x40000000
   27bb0:	6019      	str	r1, [r3, #0]
   27bb2:	b004      	add	sp, #16
   27bb4:	bd10      	pop	{r4, pc}
   27bb6:	6011      	str	r1, [r2, #0]
   27bb8:	e7db      	b.n	27b72 <tusb_hal_nrf_power_event+0x5e>
   27bba:	6011      	str	r1, [r2, #0]
   27bbc:	e7e6      	b.n	27b8c <tusb_hal_nrf_power_event+0x78>
   27bbe:	494b      	ldr	r1, [pc, #300]	; (27cec <tusb_hal_nrf_power_event+0x1d8>)
   27bc0:	f8d1 3504 	ldr.w	r3, [r1, #1284]	; 0x504
   27bc4:	b11b      	cbz	r3, 27bce <tusb_hal_nrf_power_event+0xba>
   27bc6:	f7ff fde3 	bl	27790 <hfclk_running>
   27bca:	2800      	cmp	r0, #0
   27bcc:	d1f1      	bne.n	27bb2 <tusb_hal_nrf_power_event+0x9e>
   27bce:	f8d1 3400 	ldr.w	r3, [r1, #1024]	; 0x400
   27bd2:	051b      	lsls	r3, r3, #20
   27bd4:	d5fb      	bpl.n	27bce <tusb_hal_nrf_power_event+0xba>
   27bd6:	f44f 6300 	mov.w	r3, #2048	; 0x800
   27bda:	f8c1 3400 	str.w	r3, [r1, #1024]	; 0x400
   27bde:	f3bf 8f6f 	isb	sy
   27be2:	f3bf 8f4f 	dsb	sy
   27be6:	f7ff fddf 	bl	277a8 <nrf52_errata_166>
   27bea:	b148      	cbz	r0, 27c00 <tusb_hal_nrf_power_event+0xec>
   27bec:	4b43      	ldr	r3, [pc, #268]	; (27cfc <tusb_hal_nrf_power_event+0x1e8>)
   27bee:	4a45      	ldr	r2, [pc, #276]	; (27d04 <tusb_hal_nrf_power_event+0x1f0>)
   27bf0:	6818      	ldr	r0, [r3, #0]
   27bf2:	2800      	cmp	r0, #0
   27bf4:	d142      	bne.n	27c7c <tusb_hal_nrf_power_event+0x168>
   27bf6:	f249 3175 	movw	r1, #37749	; 0x9375
   27bfa:	6019      	str	r1, [r3, #0]
   27bfc:	6010      	str	r0, [r2, #0]
   27bfe:	6019      	str	r1, [r3, #0]
   27c00:	4b3b      	ldr	r3, [pc, #236]	; (27cf0 <tusb_hal_nrf_power_event+0x1dc>)
   27c02:	681b      	ldr	r3, [r3, #0]
   27c04:	2b08      	cmp	r3, #8
   27c06:	d110      	bne.n	27c2a <tusb_hal_nrf_power_event+0x116>
   27c08:	4b3a      	ldr	r3, [pc, #232]	; (27cf4 <tusb_hal_nrf_power_event+0x1e0>)
   27c0a:	681a      	ldr	r2, [r3, #0]
   27c0c:	2a03      	cmp	r2, #3
   27c0e:	d80c      	bhi.n	27c2a <tusb_hal_nrf_power_event+0x116>
   27c10:	4b39      	ldr	r3, [pc, #228]	; (27cf8 <tusb_hal_nrf_power_event+0x1e4>)
   27c12:	4413      	add	r3, r2
   27c14:	7e1b      	ldrb	r3, [r3, #24]
   27c16:	b143      	cbz	r3, 27c2a <tusb_hal_nrf_power_event+0x116>
   27c18:	4b38      	ldr	r3, [pc, #224]	; (27cfc <tusb_hal_nrf_power_event+0x1e8>)
   27c1a:	4a39      	ldr	r2, [pc, #228]	; (27d00 <tusb_hal_nrf_power_event+0x1ec>)
   27c1c:	6818      	ldr	r0, [r3, #0]
   27c1e:	bb80      	cbnz	r0, 27c82 <tusb_hal_nrf_power_event+0x16e>
   27c20:	f249 3175 	movw	r1, #37749	; 0x9375
   27c24:	6019      	str	r1, [r3, #0]
   27c26:	6010      	str	r0, [r2, #0]
   27c28:	6019      	str	r1, [r3, #0]
   27c2a:	f7ff fdbd 	bl	277a8 <nrf52_errata_166>
   27c2e:	b148      	cbz	r0, 27c44 <tusb_hal_nrf_power_event+0x130>
   27c30:	4b36      	ldr	r3, [pc, #216]	; (27d0c <tusb_hal_nrf_power_event+0x1f8>)
   27c32:	f240 72e3 	movw	r2, #2019	; 0x7e3
   27c36:	601a      	str	r2, [r3, #0]
   27c38:	2240      	movs	r2, #64	; 0x40
   27c3a:	605a      	str	r2, [r3, #4]
   27c3c:	f3bf 8f6f 	isb	sy
   27c40:	f3bf 8f4f 	dsb	sy
   27c44:	4b29      	ldr	r3, [pc, #164]	; (27cec <tusb_hal_nrf_power_event+0x1d8>)
   27c46:	4832      	ldr	r0, [pc, #200]	; (27d10 <tusb_hal_nrf_power_event+0x1fc>)
   27c48:	2280      	movs	r2, #128	; 0x80
   27c4a:	2101      	movs	r1, #1
   27c4c:	f8c3 251c 	str.w	r2, [r3, #1308]	; 0x51c
   27c50:	f8c3 1304 	str.w	r1, [r3, #772]	; 0x304
   27c54:	492f      	ldr	r1, [pc, #188]	; (27d14 <tusb_hal_nrf_power_event+0x200>)
   27c56:	f8c0 2184 	str.w	r2, [r0, #388]	; 0x184
   27c5a:	7809      	ldrb	r1, [r1, #0]
   27c5c:	29ff      	cmp	r1, #255	; 0xff
   27c5e:	4619      	mov	r1, r3
   27c60:	d000      	beq.n	27c64 <tusb_hal_nrf_power_event+0x150>
   27c62:	6042      	str	r2, [r0, #4]
   27c64:	f7ff fd94 	bl	27790 <hfclk_running>
   27c68:	2800      	cmp	r0, #0
   27c6a:	d0fb      	beq.n	27c64 <tusb_hal_nrf_power_event+0x150>
   27c6c:	2301      	movs	r3, #1
   27c6e:	f8c1 3504 	str.w	r3, [r1, #1284]	; 0x504
   27c72:	f3bf 8f6f 	isb	sy
   27c76:	f3bf 8f4f 	dsb	sy
   27c7a:	e79a      	b.n	27bb2 <tusb_hal_nrf_power_event+0x9e>
   27c7c:	2300      	movs	r3, #0
   27c7e:	6013      	str	r3, [r2, #0]
   27c80:	e7be      	b.n	27c00 <tusb_hal_nrf_power_event+0xec>
   27c82:	2300      	movs	r3, #0
   27c84:	6013      	str	r3, [r2, #0]
   27c86:	e7d0      	b.n	27c2a <tusb_hal_nrf_power_event+0x116>
   27c88:	4a18      	ldr	r2, [pc, #96]	; (27cec <tusb_hal_nrf_power_event+0x1d8>)
   27c8a:	f8d2 3500 	ldr.w	r3, [r2, #1280]	; 0x500
   27c8e:	2b00      	cmp	r3, #0
   27c90:	d08f      	beq.n	27bb2 <tusb_hal_nrf_power_event+0x9e>
   27c92:	2300      	movs	r3, #0
   27c94:	f8c2 3504 	str.w	r3, [r2, #1284]	; 0x504
   27c98:	f3bf 8f6f 	isb	sy
   27c9c:	f3bf 8f4f 	dsb	sy
   27ca0:	491b      	ldr	r1, [pc, #108]	; (27d10 <tusb_hal_nrf_power_event+0x1fc>)
   27ca2:	2480      	movs	r4, #128	; 0x80
   27ca4:	f8c1 4084 	str.w	r4, [r1, #132]	; 0x84
   27ca8:	f3bf 8f4f 	dsb	sy
   27cac:	f3bf 8f6f 	isb	sy
   27cb0:	f8d2 1300 	ldr.w	r1, [r2, #768]	; 0x300
   27cb4:	f8c2 1308 	str.w	r1, [r2, #776]	; 0x308
   27cb8:	f8c2 3500 	str.w	r3, [r2, #1280]	; 0x500
   27cbc:	f3bf 8f6f 	isb	sy
   27cc0:	f3bf 8f4f 	dsb	sy
   27cc4:	4a14      	ldr	r2, [pc, #80]	; (27d18 <tusb_hal_nrf_power_event+0x204>)
   27cc6:	6010      	str	r0, [r2, #0]
   27cc8:	4a14      	ldr	r2, [pc, #80]	; (27d1c <tusb_hal_nrf_power_event+0x208>)
   27cca:	6851      	ldr	r1, [r2, #4]
   27ccc:	9303      	str	r3, [sp, #12]
   27cce:	f3c1 0108 	ubfx	r1, r1, #0, #9
   27cd2:	3900      	subs	r1, #0
   27cd4:	e9cd 3301 	strd	r3, r3, [sp, #4]
   27cd8:	bf18      	it	ne
   27cda:	2101      	movne	r1, #1
   27cdc:	f44f 7300 	mov.w	r3, #512	; 0x200
   27ce0:	a801      	add	r0, sp, #4
   27ce2:	f8ad 3004 	strh.w	r3, [sp, #4]
   27ce6:	f7ff fe90 	bl	27a0a <dcd_event_handler>
   27cea:	e762      	b.n	27bb2 <tusb_hal_nrf_power_event+0x9e>
   27cec:	40027000 	.word	0x40027000
   27cf0:	10000130 	.word	0x10000130
   27cf4:	10000134 	.word	0x10000134
   27cf8:	0002b584 	.word	0x0002b584
   27cfc:	4006ec00 	.word	0x4006ec00
   27d00:	4006ed14 	.word	0x4006ed14
   27d04:	4006ec14 	.word	0x4006ec14
   27d08:	40000100 	.word	0x40000100
   27d0c:	40027800 	.word	0x40027800
   27d10:	e000e100 	.word	0xe000e100
   27d14:	20006004 	.word	0x20006004
   27d18:	40000004 	.word	0x40000004
   27d1c:	e000ed00 	.word	0xe000ed00

00027d20 <power_event_handler>:
   27d20:	e6f8      	b.n	27b14 <tusb_hal_nrf_power_event>

00027d22 <_tu_fifo_peek_n.constprop.0>:
   27d22:	e92d 47f0 	stmdb	sp!, {r4, r5, r6, r7, r8, r9, sl, lr}
   27d26:	f8bd 4020 	ldrh.w	r4, [sp, #32]
   27d2a:	8887      	ldrh	r7, [r0, #4]
   27d2c:	42a3      	cmp	r3, r4
   27d2e:	4688      	mov	r8, r1
   27d30:	eba3 0504 	sub.w	r5, r3, r4
   27d34:	bf38      	it	cc
   27d36:	8941      	ldrhcc	r1, [r0, #10]
   27d38:	b2ad      	uxth	r5, r5
   27d3a:	bf3c      	itt	cc
   27d3c:	1a6d      	subcc	r5, r5, r1
   27d3e:	b2ad      	uxthcc	r5, r5
   27d40:	42af      	cmp	r7, r5
   27d42:	4606      	mov	r6, r0
   27d44:	d20d      	bcs.n	27d62 <_tu_fifo_peek_n.constprop.0+0x40>
   27d46:	1bd9      	subs	r1, r3, r7
   27d48:	42bb      	cmp	r3, r7
   27d4a:	b289      	uxth	r1, r1
   27d4c:	d302      	bcc.n	27d54 <_tu_fifo_peek_n.constprop.0+0x32>
   27d4e:	8983      	ldrh	r3, [r0, #12]
   27d50:	428b      	cmp	r3, r1
   27d52:	d202      	bcs.n	27d5a <_tu_fifo_peek_n.constprop.0+0x38>
   27d54:	8973      	ldrh	r3, [r6, #10]
   27d56:	1ac9      	subs	r1, r1, r3
   27d58:	b289      	uxth	r1, r1
   27d5a:	8231      	strh	r1, [r6, #16]
   27d5c:	8a34      	ldrh	r4, [r6, #16]
   27d5e:	463d      	mov	r5, r7
   27d60:	b2a4      	uxth	r4, r4
   27d62:	b1a5      	cbz	r5, 27d8e <_tu_fifo_peek_n.constprop.0+0x6c>
   27d64:	4295      	cmp	r5, r2
   27d66:	bf28      	it	cs
   27d68:	4615      	movcs	r5, r2
   27d6a:	42a7      	cmp	r7, r4
   27d6c:	d912      	bls.n	27d94 <_tu_fifo_peek_n.constprop.0+0x72>
   27d6e:	eba7 0904 	sub.w	r9, r7, r4
   27d72:	f8b6 a006 	ldrh.w	sl, [r6, #6]
   27d76:	6831      	ldr	r1, [r6, #0]
   27d78:	fa1f f989 	uxth.w	r9, r9
   27d7c:	454d      	cmp	r5, r9
   27d7e:	fb0a 1104 	mla	r1, sl, r4, r1
   27d82:	d80a      	bhi.n	27d9a <_tu_fifo_peek_n.constprop.0+0x78>
   27d84:	fb0a f205 	mul.w	r2, sl, r5
   27d88:	4640      	mov	r0, r8
   27d8a:	f003 f9e1 	bl	2b150 <memcpy>
   27d8e:	4628      	mov	r0, r5
   27d90:	e8bd 87f0 	ldmia.w	sp!, {r4, r5, r6, r7, r8, r9, sl, pc}
   27d94:	1be4      	subs	r4, r4, r7
   27d96:	b2a4      	uxth	r4, r4
   27d98:	e7e7      	b.n	27d6a <_tu_fifo_peek_n.constprop.0+0x48>
   27d9a:	fb19 f90a 	smulbb	r9, r9, sl
   27d9e:	fa1f f989 	uxth.w	r9, r9
   27da2:	464a      	mov	r2, r9
   27da4:	4640      	mov	r0, r8
   27da6:	f003 f9d3 	bl	2b150 <memcpy>
   27daa:	1bea      	subs	r2, r5, r7
   27dac:	4422      	add	r2, r4
   27dae:	fb12 f20a 	smulbb	r2, r2, sl
   27db2:	6831      	ldr	r1, [r6, #0]
   27db4:	b292      	uxth	r2, r2
   27db6:	eb08 0009 	add.w	r0, r8, r9
   27dba:	f003 f9c9 	bl	2b150 <memcpy>
   27dbe:	e7e6      	b.n	27d8e <_tu_fifo_peek_n.constprop.0+0x6c>

00027dc0 <_tu_fifo_write_n.part.0.constprop.0>:
   27dc0:	e92d 4ff8 	stmdb	sp!, {r3, r4, r5, r6, r7, r8, r9, sl, fp, lr}
   27dc4:	468a      	mov	sl, r1
   27dc6:	f8b0 800e 	ldrh.w	r8, [r0, #14]
   27dca:	7a03      	ldrb	r3, [r0, #8]
   27dcc:	8a01      	ldrh	r1, [r0, #16]
   27dce:	8887      	ldrh	r7, [r0, #4]
   27dd0:	f8b0 9006 	ldrh.w	r9, [r0, #6]
   27dd4:	4605      	mov	r5, r0
   27dd6:	4614      	mov	r4, r2
   27dd8:	fa1f f888 	uxth.w	r8, r8
   27ddc:	b289      	uxth	r1, r1
   27dde:	bb6b      	cbnz	r3, 27e3c <_tu_fifo_write_n.part.0.constprop.0+0x7c>
   27de0:	4588      	cmp	r8, r1
   27de2:	bf38      	it	cc
   27de4:	8942      	ldrhcc	r2, [r0, #10]
   27de6:	eba8 0301 	sub.w	r3, r8, r1
   27dea:	b29b      	uxth	r3, r3
   27dec:	bf3c      	itt	cc
   27dee:	1a9b      	subcc	r3, r3, r2
   27df0:	b29b      	uxthcc	r3, r3
   27df2:	1afb      	subs	r3, r7, r3
   27df4:	b29b      	uxth	r3, r3
   27df6:	429c      	cmp	r4, r3
   27df8:	bf28      	it	cs
   27dfa:	461c      	movcs	r4, r3
   27dfc:	4646      	mov	r6, r8
   27dfe:	42be      	cmp	r6, r7
   27e00:	d224      	bcs.n	27e4c <_tu_fifo_write_n.part.0.constprop.0+0x8c>
   27e02:	eba7 0b06 	sub.w	fp, r7, r6
   27e06:	6828      	ldr	r0, [r5, #0]
   27e08:	fa1f fb8b 	uxth.w	fp, fp
   27e0c:	455c      	cmp	r4, fp
   27e0e:	fb09 0006 	mla	r0, r9, r6, r0
   27e12:	d81e      	bhi.n	27e52 <_tu_fifo_write_n.part.0.constprop.0+0x92>
   27e14:	fb09 f204 	mul.w	r2, r9, r4
   27e18:	4651      	mov	r1, sl
   27e1a:	f003 f999 	bl	2b150 <memcpy>
   27e1e:	eb04 0308 	add.w	r3, r4, r8
   27e22:	b29b      	uxth	r3, r3
   27e24:	4598      	cmp	r8, r3
   27e26:	d802      	bhi.n	27e2e <_tu_fifo_write_n.part.0.constprop.0+0x6e>
   27e28:	89aa      	ldrh	r2, [r5, #12]
   27e2a:	429a      	cmp	r2, r3
   27e2c:	d202      	bcs.n	27e34 <_tu_fifo_write_n.part.0.constprop.0+0x74>
   27e2e:	896a      	ldrh	r2, [r5, #10]
   27e30:	4413      	add	r3, r2
   27e32:	b29b      	uxth	r3, r3
   27e34:	81eb      	strh	r3, [r5, #14]
   27e36:	4620      	mov	r0, r4
   27e38:	e8bd 8ff8 	ldmia.w	sp!, {r3, r4, r5, r6, r7, r8, r9, sl, fp, pc}
   27e3c:	42ba      	cmp	r2, r7
   27e3e:	bf21      	itttt	cs
   27e40:	1bd4      	subcs	r4, r2, r7
   27e42:	fb09 aa04 	mlacs	sl, r9, r4, sl
   27e46:	4688      	movcs	r8, r1
   27e48:	463c      	movcs	r4, r7
   27e4a:	e7d7      	b.n	27dfc <_tu_fifo_write_n.part.0.constprop.0+0x3c>
   27e4c:	1bf6      	subs	r6, r6, r7
   27e4e:	b2b6      	uxth	r6, r6
   27e50:	e7d5      	b.n	27dfe <_tu_fifo_write_n.part.0.constprop.0+0x3e>
   27e52:	fb1b fb09 	smulbb	fp, fp, r9
   27e56:	fa1f fb8b 	uxth.w	fp, fp
   27e5a:	465a      	mov	r2, fp
   27e5c:	4651      	mov	r1, sl
   27e5e:	f003 f977 	bl	2b150 <memcpy>
   27e62:	1be2      	subs	r2, r4, r7
   27e64:	4432      	add	r2, r6
   27e66:	fb12 f209 	smulbb	r2, r2, r9
   27e6a:	6828      	ldr	r0, [r5, #0]
   27e6c:	b292      	uxth	r2, r2
   27e6e:	eb0a 010b 	add.w	r1, sl, fp
   27e72:	f003 f96d 	bl	2b150 <memcpy>
   27e76:	e7d2      	b.n	27e1e <_tu_fifo_write_n.part.0.constprop.0+0x5e>

00027e78 <start_dma>:
   27e78:	2301      	movs	r3, #1
   27e7a:	6003      	str	r3, [r0, #0]
   27e7c:	f3bf 8f6f 	isb	sy
   27e80:	f3bf 8f4f 	dsb	sy
   27e84:	4b07      	ldr	r3, [pc, #28]	; (27ea4 <start_dma+0x2c>)
   27e86:	4298      	cmp	r0, r3
   27e88:	d002      	beq.n	27e90 <start_dma+0x18>
   27e8a:	3b04      	subs	r3, #4
   27e8c:	4298      	cmp	r0, r3
   27e8e:	d107      	bne.n	27ea0 <start_dma+0x28>
   27e90:	f3bf 8f5b 	dmb	ish
   27e94:	4b04      	ldr	r3, [pc, #16]	; (27ea8 <start_dma+0x30>)
   27e96:	2200      	movs	r2, #0
   27e98:	f883 217c 	strb.w	r2, [r3, #380]	; 0x17c
   27e9c:	f3bf 8f5b 	dmb	ish
   27ea0:	4770      	bx	lr
   27ea2:	bf00      	nop
   27ea4:	40027050 	.word	0x40027050
   27ea8:	200060a4 	.word	0x200060a4

00027eac <xact_out_dma>:
   27eac:	b530      	push	{r4, r5, lr}
   27eae:	4b2e      	ldr	r3, [pc, #184]	; (27f68 <xact_out_dma+0xbc>)
   27eb0:	f3bf 8f5b 	dmb	ish
   27eb4:	b085      	sub	sp, #20
   27eb6:	f503 72be 	add.w	r2, r3, #380	; 0x17c
   27eba:	f04f 0101 	mov.w	r1, #1
   27ebe:	e8d2 4f4f 	ldrexb	r4, [r2]
   27ec2:	e8c2 1f45 	strexb	r5, r1, [r2]
   27ec6:	2d00      	cmp	r5, #0
   27ec8:	d1f9      	bne.n	27ebe <xact_out_dma+0x12>
   27eca:	f3bf 8f5b 	dmb	ish
   27ece:	f014 0fff 	tst.w	r4, #255	; 0xff
   27ed2:	d013      	beq.n	27efc <xact_out_dma+0x50>
   27ed4:	4b25      	ldr	r3, [pc, #148]	; (27f6c <xact_out_dma+0xc0>)
   27ed6:	6859      	ldr	r1, [r3, #4]
   27ed8:	2300      	movs	r3, #0
   27eda:	9301      	str	r3, [sp, #4]
   27edc:	2308      	movs	r3, #8
   27ede:	f88d 3005 	strb.w	r3, [sp, #5]
   27ee2:	f3c1 0108 	ubfx	r1, r1, #0, #9
   27ee6:	4b22      	ldr	r3, [pc, #136]	; (27f70 <xact_out_dma+0xc4>)
   27ee8:	3900      	subs	r1, #0
   27eea:	e9cd 3002 	strd	r3, r0, [sp, #8]
   27eee:	bf18      	it	ne
   27ef0:	2101      	movne	r1, #1
   27ef2:	a801      	add	r0, sp, #4
   27ef4:	f7ff fd89 	bl	27a0a <dcd_event_handler>
   27ef8:	b005      	add	sp, #20
   27efa:	bd30      	pop	{r4, r5, pc}
   27efc:	2808      	cmp	r0, #8
   27efe:	491d      	ldr	r1, [pc, #116]	; (27f74 <xact_out_dma+0xc8>)
   27f00:	d114      	bne.n	27f2c <xact_out_dma+0x80>
   27f02:	f8d1 24c0 	ldr.w	r2, [r1, #1216]	; 0x4c0
   27f06:	03d0      	lsls	r0, r2, #15
   27f08:	d506      	bpl.n	27f18 <xact_out_dma+0x6c>
   27f0a:	f3bf 8f5b 	dmb	ish
   27f0e:	f883 417c 	strb.w	r4, [r3, #380]	; 0x17c
   27f12:	f3bf 8f5b 	dmb	ish
   27f16:	e7ef      	b.n	27ef8 <xact_out_dma+0x4c>
   27f18:	f8d3 315c 	ldr.w	r3, [r3, #348]	; 0x15c
   27f1c:	f8c1 37a0 	str.w	r3, [r1, #1952]	; 0x7a0
   27f20:	4815      	ldr	r0, [pc, #84]	; (27f78 <xact_out_dma+0xcc>)
   27f22:	f8c1 27a4 	str.w	r2, [r1, #1956]	; 0x7a4
   27f26:	f7ff ffa7 	bl	27e78 <start_dma>
   27f2a:	e7e5      	b.n	27ef8 <xact_out_dma+0x4c>
   27f2c:	eb03 1340 	add.w	r3, r3, r0, lsl #5
   27f30:	f500 7294 	add.w	r2, r0, #296	; 0x128
   27f34:	f851 4022 	ldr.w	r4, [r1, r2, lsl #2]
   27f38:	f8b3 5062 	ldrh.w	r5, [r3, #98]	; 0x62
   27f3c:	f8b3 2060 	ldrh.w	r2, [r3, #96]	; 0x60
   27f40:	1b52      	subs	r2, r2, r5
   27f42:	b292      	uxth	r2, r2
   27f44:	b2a4      	uxth	r4, r4
   27f46:	42a2      	cmp	r2, r4
   27f48:	bf28      	it	cs
   27f4a:	4622      	movcs	r2, r4
   27f4c:	6ddc      	ldr	r4, [r3, #92]	; 0x5c
   27f4e:	2314      	movs	r3, #20
   27f50:	fb03 1100 	mla	r1, r3, r0, r1
   27f54:	4b09      	ldr	r3, [pc, #36]	; (27f7c <xact_out_dma+0xd0>)
   27f56:	f8c1 4700 	str.w	r4, [r1, #1792]	; 0x700
   27f5a:	eb03 0080 	add.w	r0, r3, r0, lsl #2
   27f5e:	f8c1 2704 	str.w	r2, [r1, #1796]	; 0x704
   27f62:	f7ff ff89 	bl	27e78 <start_dma>
   27f66:	e7c7      	b.n	27ef8 <xact_out_dma+0x4c>
   27f68:	200060a4 	.word	0x200060a4
   27f6c:	e000ed00 	.word	0xe000ed00
   27f70:	00027fcd 	.word	0x00027fcd
   27f74:	40027000 	.word	0x40027000
   27f78:	40027048 	.word	0x40027048
   27f7c:	40027028 	.word	0x40027028

00027f80 <dcd_edpt_stall.constprop.0>:
   27f80:	b508      	push	{r3, lr}
   27f82:	4603      	mov	r3, r0
   27f84:	f010 007f 	ands.w	r0, r0, #127	; 0x7f
   27f88:	d107      	bne.n	27f9a <dcd_edpt_stall.constprop.0+0x1a>
   27f8a:	4b0e      	ldr	r3, [pc, #56]	; (27fc4 <dcd_edpt_stall.constprop.0+0x44>)
   27f8c:	2201      	movs	r2, #1
   27f8e:	655a      	str	r2, [r3, #84]	; 0x54
   27f90:	f3bf 8f6f 	isb	sy
   27f94:	f3bf 8f4f 	dsb	sy
   27f98:	bd08      	pop	{r3, pc}
   27f9a:	2808      	cmp	r0, #8
   27f9c:	d0f8      	beq.n	27f90 <dcd_edpt_stall.constprop.0+0x10>
   27f9e:	4a09      	ldr	r2, [pc, #36]	; (27fc4 <dcd_edpt_stall.constprop.0+0x44>)
   27fa0:	f443 7180 	orr.w	r1, r3, #256	; 0x100
   27fa4:	09db      	lsrs	r3, r3, #7
   27fa6:	f8c2 1518 	str.w	r1, [r2, #1304]	; 0x518
   27faa:	d1f1      	bne.n	27f90 <dcd_edpt_stall.constprop.0+0x10>
   27fac:	4a06      	ldr	r2, [pc, #24]	; (27fc8 <dcd_edpt_stall.constprop.0+0x48>)
   27fae:	eb02 1240 	add.w	r2, r2, r0, lsl #5
   27fb2:	f892 1066 	ldrb.w	r1, [r2, #102]	; 0x66
   27fb6:	2900      	cmp	r1, #0
   27fb8:	d0ea      	beq.n	27f90 <dcd_edpt_stall.constprop.0+0x10>
   27fba:	f882 3066 	strb.w	r3, [r2, #102]	; 0x66
   27fbe:	f7ff ff75 	bl	27eac <xact_out_dma>
   27fc2:	e7e5      	b.n	27f90 <dcd_edpt_stall.constprop.0+0x10>
   27fc4:	40027000 	.word	0x40027000
   27fc8:	200060a4 	.word	0x200060a4

00027fcc <xact_out_dma_wrapper>:
   27fcc:	b2c0      	uxtb	r0, r0
   27fce:	e76d      	b.n	27eac <xact_out_dma>

00027fd0 <edpt_dma_start>:
   27fd0:	b51f      	push	{r0, r1, r2, r3, r4, lr}
   27fd2:	4a11      	ldr	r2, [pc, #68]	; (28018 <edpt_dma_start+0x48>)
   27fd4:	f3bf 8f5b 	dmb	ish
   27fd8:	4603      	mov	r3, r0
   27fda:	f04f 0401 	mov.w	r4, #1
   27fde:	e8d2 1f4f 	ldrexb	r1, [r2]
   27fe2:	e8c2 4f4c 	strexb	ip, r4, [r2]
   27fe6:	f1bc 0f00 	cmp.w	ip, #0
   27fea:	d1f8      	bne.n	27fde <edpt_dma_start+0xe>
   27fec:	f3bf 8f5b 	dmb	ish
   27ff0:	f011 0fff 	tst.w	r1, #255	; 0xff
   27ff4:	d00d      	beq.n	28012 <edpt_dma_start+0x42>
   27ff6:	2200      	movs	r2, #0
   27ff8:	9201      	str	r2, [sp, #4]
   27ffa:	2208      	movs	r2, #8
   27ffc:	f88d 2005 	strb.w	r2, [sp, #5]
   28000:	4a06      	ldr	r2, [pc, #24]	; (2801c <edpt_dma_start+0x4c>)
   28002:	2101      	movs	r1, #1
   28004:	a801      	add	r0, sp, #4
   28006:	e9cd 2302 	strd	r2, r3, [sp, #8]
   2800a:	f7ff fcfe 	bl	27a0a <dcd_event_handler>
   2800e:	b004      	add	sp, #16
   28010:	bd10      	pop	{r4, pc}
   28012:	f7ff ff31 	bl	27e78 <start_dma>
   28016:	e7fa      	b.n	2800e <edpt_dma_start+0x3e>
   28018:	20006220 	.word	0x20006220
   2801c:	00027fd1 	.word	0x00027fd1

00028020 <xact_in_dma>:
   28020:	4b0e      	ldr	r3, [pc, #56]	; (2805c <xact_in_dma+0x3c>)
   28022:	eb03 1340 	add.w	r3, r3, r0, lsl #5
   28026:	f8b3 1072 	ldrh.w	r1, [r3, #114]	; 0x72
   2802a:	f8b3 2070 	ldrh.w	r2, [r3, #112]	; 0x70
   2802e:	1a52      	subs	r2, r2, r1
   28030:	f8b3 1074 	ldrh.w	r1, [r3, #116]	; 0x74
   28034:	b292      	uxth	r2, r2
   28036:	428a      	cmp	r2, r1
   28038:	bf28      	it	cs
   2803a:	460a      	movcs	r2, r1
   2803c:	6ed9      	ldr	r1, [r3, #108]	; 0x6c
   2803e:	2314      	movs	r3, #20
   28040:	4343      	muls	r3, r0
   28042:	f103 4380 	add.w	r3, r3, #1073741824	; 0x40000000
   28046:	f503 331c 	add.w	r3, r3, #159744	; 0x27000
   2804a:	f8c3 1600 	str.w	r1, [r3, #1536]	; 0x600
   2804e:	f8c3 2604 	str.w	r2, [r3, #1540]	; 0x604
   28052:	4b03      	ldr	r3, [pc, #12]	; (28060 <xact_in_dma+0x40>)
   28054:	eb03 0080 	add.w	r0, r3, r0, lsl #2
   28058:	e7ba      	b.n	27fd0 <edpt_dma_start>
   2805a:	bf00      	nop
   2805c:	200060a4 	.word	0x200060a4
   28060:	40027004 	.word	0x40027004

00028064 <usbd_edpt_xfer.constprop.0>:
   28064:	e92d 41ff 	stmdb	sp!, {r0, r1, r2, r3, r4, r5, r6, r7, r8, lr}
   28068:	4b46      	ldr	r3, [pc, #280]	; (28184 <usbd_edpt_xfer.constprop.0+0x120>)
   2806a:	4606      	mov	r6, r0
   2806c:	f000 007f 	and.w	r0, r0, #127	; 0x7f
   28070:	eb03 0540 	add.w	r5, r3, r0, lsl #1
   28074:	eb05 15d6 	add.w	r5, r5, r6, lsr #7
   28078:	3520      	adds	r5, #32
   2807a:	796c      	ldrb	r4, [r5, #5]
   2807c:	f014 0401 	ands.w	r4, r4, #1
   28080:	ea4f 17d6 	mov.w	r7, r6, lsr #7
   28084:	ea4f 0c40 	mov.w	ip, r0, lsl #1
   28088:	d006      	beq.n	28098 <usbd_edpt_xfer.constprop.0+0x34>
   2808a:	f7ff fb9d 	bl	277c8 <tud_init.part.0>
   2808e:	4604      	mov	r4, r0
   28090:	4620      	mov	r0, r4
   28092:	b004      	add	sp, #16
   28094:	e8bd 81f0 	ldmia.w	sp!, {r4, r5, r6, r7, r8, pc}
   28098:	f895 e005 	ldrb.w	lr, [r5, #5]
   2809c:	f04e 0e01 	orr.w	lr, lr, #1
   280a0:	f885 e005 	strb.w	lr, [r5, #5]
   280a4:	eb0c 0507 	add.w	r5, ip, r7
   280a8:	eb03 1505 	add.w	r5, r3, r5, lsl #4
   280ac:	f895 e067 	ldrb.w	lr, [r5, #103]	; 0x67
   280b0:	f1be 0f00 	cmp.w	lr, #0
   280b4:	d017      	beq.n	280e6 <usbd_edpt_xfer.constprop.0+0x82>
   280b6:	4a34      	ldr	r2, [pc, #208]	; (28188 <usbd_edpt_xfer.constprop.0+0x124>)
   280b8:	6811      	ldr	r1, [r2, #0]
   280ba:	07c9      	lsls	r1, r1, #31
   280bc:	d500      	bpl.n	280c0 <usbd_edpt_xfer.constprop.0+0x5c>
   280be:	be00      	bkpt	0x0000
   280c0:	4463      	add	r3, ip
   280c2:	443b      	add	r3, r7
   280c4:	f893 1025 	ldrb.w	r1, [r3, #37]	; 0x25
   280c8:	f36f 0100 	bfc	r1, #0, #1
   280cc:	f883 1025 	strb.w	r1, [r3, #37]	; 0x25
   280d0:	f893 1025 	ldrb.w	r1, [r3, #37]	; 0x25
   280d4:	f36f 0182 	bfc	r1, #2, #1
   280d8:	f883 1025 	strb.w	r1, [r3, #37]	; 0x25
   280dc:	6813      	ldr	r3, [r2, #0]
   280de:	07db      	lsls	r3, r3, #31
   280e0:	d5d6      	bpl.n	28090 <usbd_edpt_xfer.constprop.0+0x2c>
   280e2:	be00      	bkpt	0x0000
   280e4:	e7d4      	b.n	28090 <usbd_edpt_xfer.constprop.0+0x2c>
   280e6:	65e9      	str	r1, [r5, #92]	; 0x5c
   280e8:	f8a5 2060 	strh.w	r2, [r5, #96]	; 0x60
   280ec:	f8a5 4062 	strh.w	r4, [r5, #98]	; 0x62
   280f0:	bb08      	cbnz	r0, 28136 <usbd_edpt_xfer.constprop.0+0xd2>
   280f2:	bb02      	cbnz	r2, 28136 <usbd_edpt_xfer.constprop.0+0xd2>
   280f4:	4a25      	ldr	r2, [pc, #148]	; (2818c <usbd_edpt_xfer.constprop.0+0x128>)
   280f6:	f8d2 2480 	ldr.w	r2, [r2, #1152]	; 0x480
   280fa:	f3c2 12c0 	ubfx	r2, r2, #7, #1
   280fe:	4297      	cmp	r7, r2
   28100:	d019      	beq.n	28136 <usbd_edpt_xfer.constprop.0+0xd2>
   28102:	4823      	ldr	r0, [pc, #140]	; (28190 <usbd_edpt_xfer.constprop.0+0x12c>)
   28104:	f7ff ff64 	bl	27fd0 <edpt_dma_start>
   28108:	4b22      	ldr	r3, [pc, #136]	; (28194 <usbd_edpt_xfer.constprop.0+0x130>)
   2810a:	6859      	ldr	r1, [r3, #4]
   2810c:	9403      	str	r4, [sp, #12]
   2810e:	f3c1 0108 	ubfx	r1, r1, #0, #9
   28112:	3900      	subs	r1, #0
   28114:	f44f 63e0 	mov.w	r3, #1792	; 0x700
   28118:	bf18      	it	ne
   2811a:	2101      	movne	r1, #1
   2811c:	a801      	add	r0, sp, #4
   2811e:	e9cd 4401 	strd	r4, r4, [sp, #4]
   28122:	f88d 4009 	strb.w	r4, [sp, #9]
   28126:	f8ad 3004 	strh.w	r3, [sp, #4]
   2812a:	f88d 6008 	strb.w	r6, [sp, #8]
   2812e:	2401      	movs	r4, #1
   28130:	f7ff fc6b 	bl	27a0a <dcd_event_handler>
   28134:	e7ac      	b.n	28090 <usbd_edpt_xfer.constprop.0+0x2c>
   28136:	2501      	movs	r5, #1
   28138:	b9f7      	cbnz	r7, 28178 <usbd_edpt_xfer.constprop.0+0x114>
   2813a:	eb03 1340 	add.w	r3, r3, r0, lsl #5
   2813e:	f883 5067 	strb.w	r5, [r3, #103]	; 0x67
   28142:	b920      	cbnz	r0, 2814e <usbd_edpt_xfer.constprop.0+0xea>
   28144:	4814      	ldr	r0, [pc, #80]	; (28198 <usbd_edpt_xfer.constprop.0+0x134>)
   28146:	f7ff ff43 	bl	27fd0 <edpt_dma_start>
   2814a:	462c      	mov	r4, r5
   2814c:	e7a0      	b.n	28090 <usbd_edpt_xfer.constprop.0+0x2c>
   2814e:	f3bf 8f6f 	isb	sy
   28152:	f3bf 8f4f 	dsb	sy
   28156:	f893 2066 	ldrb.w	r2, [r3, #102]	; 0x66
   2815a:	f002 04ff 	and.w	r4, r2, #255	; 0xff
   2815e:	b17a      	cbz	r2, 28180 <usbd_edpt_xfer.constprop.0+0x11c>
   28160:	f893 2067 	ldrb.w	r2, [r3, #103]	; 0x67
   28164:	f002 05ff 	and.w	r5, r2, #255	; 0xff
   28168:	2a00      	cmp	r2, #0
   2816a:	d091      	beq.n	28090 <usbd_edpt_xfer.constprop.0+0x2c>
   2816c:	f883 7066 	strb.w	r7, [r3, #102]	; 0x66
   28170:	f7ff fe9c 	bl	27eac <xact_out_dma>
   28174:	462c      	mov	r4, r5
   28176:	e78b      	b.n	28090 <usbd_edpt_xfer.constprop.0+0x2c>
   28178:	f7ff ff52 	bl	28020 <xact_in_dma>
   2817c:	462c      	mov	r4, r5
   2817e:	e787      	b.n	28090 <usbd_edpt_xfer.constprop.0+0x2c>
   28180:	462c      	mov	r4, r5
   28182:	e785      	b.n	28090 <usbd_edpt_xfer.constprop.0+0x2c>
   28184:	200060a4 	.word	0x200060a4
   28188:	e000edf0 	.word	0xe000edf0
   2818c:	40027000 	.word	0x40027000
   28190:	40027050 	.word	0x40027050
   28194:	e000ed00 	.word	0xe000ed00
   28198:	4002704c 	.word	0x4002704c

0002819c <_prep_out_transaction>:
   2819c:	b510      	push	{r4, lr}
   2819e:	4601      	mov	r1, r0
   281a0:	8bc4      	ldrh	r4, [r0, #30]
   281a2:	8c00      	ldrh	r0, [r0, #32]
   281a4:	8a8a      	ldrh	r2, [r1, #20]
   281a6:	b280      	uxth	r0, r0
   281a8:	b2a4      	uxth	r4, r4
   281aa:	4284      	cmp	r4, r0
   281ac:	eba4 0300 	sub.w	r3, r4, r0
   281b0:	bf38      	it	cc
   281b2:	8b48      	ldrhcc	r0, [r1, #26]
   281b4:	b29b      	uxth	r3, r3
   281b6:	bf3c      	itt	cc
   281b8:	1a1b      	subcc	r3, r3, r0
   281ba:	b29b      	uxthcc	r3, r3
   281bc:	1ad3      	subs	r3, r2, r3
   281be:	b29b      	uxth	r3, r3
   281c0:	2b3f      	cmp	r3, #63	; 0x3f
   281c2:	d91d      	bls.n	28200 <_prep_out_transaction+0x64>
   281c4:	78c8      	ldrb	r0, [r1, #3]
   281c6:	f7ff fa71 	bl	276ac <usbd_edpt_claim.constprop.0>
   281ca:	b1c8      	cbz	r0, 28200 <_prep_out_transaction+0x64>
   281cc:	8bcc      	ldrh	r4, [r1, #30]
   281ce:	8c08      	ldrh	r0, [r1, #32]
   281d0:	8a8a      	ldrh	r2, [r1, #20]
   281d2:	b280      	uxth	r0, r0
   281d4:	b2a4      	uxth	r4, r4
   281d6:	4284      	cmp	r4, r0
   281d8:	eba4 0300 	sub.w	r3, r4, r0
   281dc:	bf38      	it	cc
   281de:	8b48      	ldrhcc	r0, [r1, #26]
   281e0:	b29b      	uxth	r3, r3
   281e2:	bf3c      	itt	cc
   281e4:	1a1b      	subcc	r3, r3, r0
   281e6:	b29b      	uxthcc	r3, r3
   281e8:	1ad3      	subs	r3, r2, r3
   281ea:	b29b      	uxth	r3, r3
   281ec:	2b3f      	cmp	r3, #63	; 0x3f
   281ee:	78c8      	ldrb	r0, [r1, #3]
   281f0:	d904      	bls.n	281fc <_prep_out_transaction+0x60>
   281f2:	e8bd 4010 	ldmia.w	sp!, {r4, lr}
   281f6:	2240      	movs	r2, #64	; 0x40
   281f8:	31b8      	adds	r1, #184	; 0xb8
   281fa:	e733      	b.n	28064 <usbd_edpt_xfer.constprop.0>
   281fc:	f7ff fa70 	bl	276e0 <usbd_edpt_release.constprop.0>
   28200:	2000      	movs	r0, #0
   28202:	bd10      	pop	{r4, pc}

00028204 <cdcd_open>:
   28204:	794b      	ldrb	r3, [r1, #5]
   28206:	2b02      	cmp	r3, #2
   28208:	e92d 41f0 	stmdb	sp!, {r4, r5, r6, r7, r8, lr}
   2820c:	d003      	beq.n	28216 <cdcd_open+0x12>
   2820e:	2500      	movs	r5, #0
   28210:	4628      	mov	r0, r5
   28212:	e8bd 81f0 	ldmia.w	sp!, {r4, r5, r6, r7, r8, pc}
   28216:	798b      	ldrb	r3, [r1, #6]
   28218:	2b02      	cmp	r3, #2
   2821a:	d1f8      	bne.n	2820e <cdcd_open+0xa>
   2821c:	4e37      	ldr	r6, [pc, #220]	; (282fc <cdcd_open+0xf8>)
   2821e:	f896 31a2 	ldrb.w	r3, [r6, #418]	; 0x1a2
   28222:	46b0      	mov	r8, r6
   28224:	b36b      	cbz	r3, 28282 <cdcd_open+0x7e>
   28226:	f896 32da 	ldrb.w	r3, [r6, #730]	; 0x2da
   2822a:	2b00      	cmp	r3, #0
   2822c:	d136      	bne.n	2829c <cdcd_open+0x98>
   2822e:	2601      	movs	r6, #1
   28230:	4f33      	ldr	r7, [pc, #204]	; (28300 <cdcd_open+0xfc>)
   28232:	7888      	ldrb	r0, [r1, #2]
   28234:	f44f 739c 	mov.w	r3, #312	; 0x138
   28238:	4373      	muls	r3, r6
   2823a:	441f      	add	r7, r3
   2823c:	4443      	add	r3, r8
   2823e:	2509      	movs	r5, #9
   28240:	f883 01a0 	strb.w	r0, [r3, #416]	; 0x1a0
   28244:	780c      	ldrb	r4, [r1, #0]
   28246:	440c      	add	r4, r1
   28248:	7863      	ldrb	r3, [r4, #1]
   2824a:	2b24      	cmp	r3, #36	; 0x24
   2824c:	d120      	bne.n	28290 <cdcd_open+0x8c>
   2824e:	42aa      	cmp	r2, r5
   28250:	d219      	bcs.n	28286 <cdcd_open+0x82>
   28252:	7863      	ldrb	r3, [r4, #1]
   28254:	2b04      	cmp	r3, #4
   28256:	d13f      	bne.n	282d8 <cdcd_open+0xd4>
   28258:	7963      	ldrb	r3, [r4, #5]
   2825a:	2b0a      	cmp	r3, #10
   2825c:	d13c      	bne.n	282d8 <cdcd_open+0xd4>
   2825e:	7826      	ldrb	r6, [r4, #0]
   28260:	f04f 0802 	mov.w	r8, #2
   28264:	4434      	add	r4, r6
   28266:	7863      	ldrb	r3, [r4, #1]
   28268:	2b05      	cmp	r3, #5
   2826a:	d104      	bne.n	28276 <cdcd_open+0x72>
   2826c:	78e3      	ldrb	r3, [r4, #3]
   2826e:	f003 0303 	and.w	r3, r3, #3
   28272:	2b02      	cmp	r3, #2
   28274:	d024      	beq.n	282c0 <cdcd_open+0xbc>
   28276:	4b23      	ldr	r3, [pc, #140]	; (28304 <cdcd_open+0x100>)
   28278:	681b      	ldr	r3, [r3, #0]
   2827a:	07da      	lsls	r2, r3, #31
   2827c:	d50e      	bpl.n	2829c <cdcd_open+0x98>
   2827e:	be00      	bkpt	0x0000
   28280:	e00c      	b.n	2829c <cdcd_open+0x98>
   28282:	461e      	mov	r6, r3
   28284:	e7d4      	b.n	28230 <cdcd_open+0x2c>
   28286:	7823      	ldrb	r3, [r4, #0]
   28288:	441d      	add	r5, r3
   2828a:	b2ad      	uxth	r5, r5
   2828c:	441c      	add	r4, r3
   2828e:	e7db      	b.n	28248 <cdcd_open+0x44>
   28290:	2b05      	cmp	r3, #5
   28292:	d1de      	bne.n	28252 <cdcd_open+0x4e>
   28294:	4620      	mov	r0, r4
   28296:	f7ff faa1 	bl	277dc <usbd_edpt_open.constprop.0>
   2829a:	b928      	cbnz	r0, 282a8 <cdcd_open+0xa4>
   2829c:	4b19      	ldr	r3, [pc, #100]	; (28304 <cdcd_open+0x100>)
   2829e:	681b      	ldr	r3, [r3, #0]
   282a0:	07db      	lsls	r3, r3, #31
   282a2:	d5b4      	bpl.n	2820e <cdcd_open+0xa>
   282a4:	be00      	bkpt	0x0000
   282a6:	e7b2      	b.n	2820e <cdcd_open+0xa>
   282a8:	f44f 729c 	mov.w	r2, #312	; 0x138
   282ac:	fb02 8606 	mla	r6, r2, r6, r8
   282b0:	78a3      	ldrb	r3, [r4, #2]
   282b2:	f886 31a1 	strb.w	r3, [r6, #417]	; 0x1a1
   282b6:	7823      	ldrb	r3, [r4, #0]
   282b8:	441d      	add	r5, r3
   282ba:	b2ad      	uxth	r5, r5
   282bc:	441c      	add	r4, r3
   282be:	e7c8      	b.n	28252 <cdcd_open+0x4e>
   282c0:	4620      	mov	r0, r4
   282c2:	f7ff fa8b 	bl	277dc <usbd_edpt_open.constprop.0>
   282c6:	b958      	cbnz	r0, 282e0 <cdcd_open+0xdc>
   282c8:	f7ff fa7e 	bl	277c8 <tud_init.part.0>
   282cc:	2800      	cmp	r0, #0
   282ce:	d0e5      	beq.n	2829c <cdcd_open+0x98>
   282d0:	350e      	adds	r5, #14
   282d2:	fa16 f585 	uxtah	r5, r6, r5
   282d6:	b2ad      	uxth	r5, r5
   282d8:	4638      	mov	r0, r7
   282da:	f7ff ff5f 	bl	2819c <_prep_out_transaction>
   282de:	e797      	b.n	28210 <cdcd_open+0xc>
   282e0:	78a3      	ldrb	r3, [r4, #2]
   282e2:	09da      	lsrs	r2, r3, #7
   282e4:	bf14      	ite	ne
   282e6:	70bb      	strbne	r3, [r7, #2]
   282e8:	70fb      	strbeq	r3, [r7, #3]
   282ea:	7823      	ldrb	r3, [r4, #0]
   282ec:	f1b8 0f01 	cmp.w	r8, #1
   282f0:	441c      	add	r4, r3
   282f2:	d0ed      	beq.n	282d0 <cdcd_open+0xcc>
   282f4:	f04f 0801 	mov.w	r8, #1
   282f8:	e7b5      	b.n	28266 <cdcd_open+0x62>
   282fa:	bf00      	nop
   282fc:	200060a4 	.word	0x200060a4
   28300:	20006244 	.word	0x20006244
   28304:	e000edf0 	.word	0xe000edf0

00028308 <_data_stage_xact>:
   28308:	b538      	push	{r3, r4, r5, lr}
   2830a:	4c14      	ldr	r4, [pc, #80]	; (2835c <_data_stage_xact+0x54>)
   2830c:	f8b4 218c 	ldrh.w	r2, [r4, #396]	; 0x18c
   28310:	f8b4 318e 	ldrh.w	r3, [r4, #398]	; 0x18e
   28314:	f994 1180 	ldrsb.w	r1, [r4, #384]	; 0x180
   28318:	1ad5      	subs	r5, r2, r3
   2831a:	b2ad      	uxth	r5, r5
   2831c:	2d40      	cmp	r5, #64	; 0x40
   2831e:	bf28      	it	cs
   28320:	2540      	movcs	r5, #64	; 0x40
   28322:	2900      	cmp	r1, #0
   28324:	da0f      	bge.n	28346 <_data_stage_xact+0x3e>
   28326:	429a      	cmp	r2, r3
   28328:	d013      	beq.n	28352 <_data_stage_xact+0x4a>
   2832a:	f8d4 1188 	ldr.w	r1, [r4, #392]	; 0x188
   2832e:	462a      	mov	r2, r5
   28330:	f504 6082 	add.w	r0, r4, #1040	; 0x410
   28334:	f002 ff0c 	bl	2b150 <memcpy>
   28338:	2080      	movs	r0, #128	; 0x80
   2833a:	f504 6182 	add.w	r1, r4, #1040	; 0x410
   2833e:	462a      	mov	r2, r5
   28340:	e8bd 4038 	ldmia.w	sp!, {r3, r4, r5, lr}
   28344:	e68e      	b.n	28064 <usbd_edpt_xfer.constprop.0>
   28346:	429a      	cmp	r2, r3
   28348:	f04f 0000 	mov.w	r0, #0
   2834c:	d103      	bne.n	28356 <_data_stage_xact+0x4e>
   2834e:	2100      	movs	r1, #0
   28350:	e7f5      	b.n	2833e <_data_stage_xact+0x36>
   28352:	2080      	movs	r0, #128	; 0x80
   28354:	e7fb      	b.n	2834e <_data_stage_xact+0x46>
   28356:	f504 6182 	add.w	r1, r4, #1040	; 0x410
   2835a:	e7f0      	b.n	2833e <_data_stage_xact+0x36>
   2835c:	200060a4 	.word	0x200060a4

00028360 <tud_control_xfer>:
   28360:	b5f8      	push	{r3, r4, r5, r6, r7, lr}
   28362:	4e1c      	ldr	r6, [pc, #112]	; (283d4 <tud_control_xfer+0x74>)
   28364:	460d      	mov	r5, r1
   28366:	4607      	mov	r7, r0
   28368:	6808      	ldr	r0, [r1, #0]
   2836a:	6849      	ldr	r1, [r1, #4]
   2836c:	4614      	mov	r4, r2
   2836e:	f506 72c0 	add.w	r2, r6, #384	; 0x180
   28372:	c203      	stmia	r2!, {r0, r1}
   28374:	2200      	movs	r2, #0
   28376:	f8c6 4188 	str.w	r4, [r6, #392]	; 0x188
   2837a:	f8a6 218e 	strh.w	r2, [r6, #398]	; 0x18e
   2837e:	88ea      	ldrh	r2, [r5, #6]
   28380:	4293      	cmp	r3, r2
   28382:	bf28      	it	cs
   28384:	4613      	movcs	r3, r2
   28386:	f8a6 318c 	strh.w	r3, [r6, #396]	; 0x18c
   2838a:	88ea      	ldrh	r2, [r5, #6]
   2838c:	b182      	cbz	r2, 283b0 <tud_control_xfer+0x50>
   2838e:	b14b      	cbz	r3, 283a4 <tud_control_xfer+0x44>
   28390:	b944      	cbnz	r4, 283a4 <tud_control_xfer+0x44>
   28392:	4b11      	ldr	r3, [pc, #68]	; (283d8 <tud_control_xfer+0x78>)
   28394:	681b      	ldr	r3, [r3, #0]
   28396:	07da      	lsls	r2, r3, #31
   28398:	d401      	bmi.n	2839e <tud_control_xfer+0x3e>
   2839a:	2000      	movs	r0, #0
   2839c:	bdf8      	pop	{r3, r4, r5, r6, r7, pc}
   2839e:	be00      	bkpt	0x0000
   283a0:	4620      	mov	r0, r4
   283a2:	e7fb      	b.n	2839c <tud_control_xfer+0x3c>
   283a4:	4638      	mov	r0, r7
   283a6:	f7ff ffaf 	bl	28308 <_data_stage_xact>
   283aa:	b160      	cbz	r0, 283c6 <tud_control_xfer+0x66>
   283ac:	2001      	movs	r0, #1
   283ae:	e7f5      	b.n	2839c <tud_control_xfer+0x3c>
   283b0:	f995 3000 	ldrsb.w	r3, [r5]
   283b4:	2b00      	cmp	r3, #0
   283b6:	bfac      	ite	ge
   283b8:	2080      	movge	r0, #128	; 0x80
   283ba:	2000      	movlt	r0, #0
   283bc:	4611      	mov	r1, r2
   283be:	f7ff fe51 	bl	28064 <usbd_edpt_xfer.constprop.0>
   283c2:	2800      	cmp	r0, #0
   283c4:	d1f2      	bne.n	283ac <tud_control_xfer+0x4c>
   283c6:	4b04      	ldr	r3, [pc, #16]	; (283d8 <tud_control_xfer+0x78>)
   283c8:	681b      	ldr	r3, [r3, #0]
   283ca:	07db      	lsls	r3, r3, #31
   283cc:	d5e5      	bpl.n	2839a <tud_control_xfer+0x3a>
   283ce:	be00      	bkpt	0x0000
   283d0:	e7e4      	b.n	2839c <tud_control_xfer+0x3c>
   283d2:	bf00      	nop
   283d4:	200060a4 	.word	0x200060a4
   283d8:	e000edf0 	.word	0xe000edf0

000283dc <tud_control_status>:
   283dc:	b410      	push	{r4}
   283de:	4c09      	ldr	r4, [pc, #36]	; (28404 <tud_control_status+0x28>)
   283e0:	6808      	ldr	r0, [r1, #0]
   283e2:	460b      	mov	r3, r1
   283e4:	6849      	ldr	r1, [r1, #4]
   283e6:	f504 72c0 	add.w	r2, r4, #384	; 0x180
   283ea:	c203      	stmia	r2!, {r0, r1}
   283ec:	2200      	movs	r2, #0
   283ee:	e9c4 2262 	strd	r2, r2, [r4, #392]	; 0x188
   283f2:	f993 3000 	ldrsb.w	r3, [r3]
   283f6:	bc10      	pop	{r4}
   283f8:	4293      	cmp	r3, r2
   283fa:	4611      	mov	r1, r2
   283fc:	bfac      	ite	ge
   283fe:	2080      	movge	r0, #128	; 0x80
   28400:	4610      	movlt	r0, r2
   28402:	e62f      	b.n	28064 <usbd_edpt_xfer.constprop.0>
   28404:	200060a4 	.word	0x200060a4

00028408 <cdcd_control_xfer_cb>:
   28408:	b570      	push	{r4, r5, r6, lr}
   2840a:	7813      	ldrb	r3, [r2, #0]
   2840c:	f003 0360 	and.w	r3, r3, #96	; 0x60
   28410:	2b20      	cmp	r3, #32
   28412:	460c      	mov	r4, r1
   28414:	4606      	mov	r6, r0
   28416:	4611      	mov	r1, r2
   28418:	d155      	bne.n	284c6 <cdcd_control_xfer_cb+0xbe>
   2841a:	4d2c      	ldr	r5, [pc, #176]	; (284cc <cdcd_control_xfer_cb+0xc4>)
   2841c:	8893      	ldrh	r3, [r2, #4]
   2841e:	f895 21a0 	ldrb.w	r2, [r5, #416]	; 0x1a0
   28422:	429a      	cmp	r2, r3
   28424:	d00e      	beq.n	28444 <cdcd_control_xfer_cb+0x3c>
   28426:	f895 22d8 	ldrb.w	r2, [r5, #728]	; 0x2d8
   2842a:	429a      	cmp	r2, r3
   2842c:	d14b      	bne.n	284c6 <cdcd_control_xfer_cb+0xbe>
   2842e:	f505 7536 	add.w	r5, r5, #728	; 0x2d8
   28432:	2001      	movs	r0, #1
   28434:	784b      	ldrb	r3, [r1, #1]
   28436:	3b20      	subs	r3, #32
   28438:	2b03      	cmp	r3, #3
   2843a:	d844      	bhi.n	284c6 <cdcd_control_xfer_cb+0xbe>
   2843c:	e8df f003 	tbb	[pc, r3]
   28440:	371e1b06 	.word	0x371e1b06
   28444:	f505 75d0 	add.w	r5, r5, #416	; 0x1a0
   28448:	2000      	movs	r0, #0
   2844a:	e7f3      	b.n	28434 <cdcd_control_xfer_cb+0x2c>
   2844c:	2c01      	cmp	r4, #1
   2844e:	d106      	bne.n	2845e <cdcd_control_xfer_cb+0x56>
   28450:	2307      	movs	r3, #7
   28452:	1daa      	adds	r2, r5, #6
   28454:	4630      	mov	r0, r6
   28456:	f7ff ff83 	bl	28360 <tud_control_xfer>
   2845a:	4620      	mov	r0, r4
   2845c:	e00a      	b.n	28474 <cdcd_control_xfer_cb+0x6c>
   2845e:	2c03      	cmp	r4, #3
   28460:	d001      	beq.n	28466 <cdcd_control_xfer_cb+0x5e>
   28462:	2001      	movs	r0, #1
   28464:	e006      	b.n	28474 <cdcd_control_xfer_cb+0x6c>
   28466:	4b1a      	ldr	r3, [pc, #104]	; (284d0 <cdcd_control_xfer_cb+0xc8>)
   28468:	2b00      	cmp	r3, #0
   2846a:	d0fa      	beq.n	28462 <cdcd_control_xfer_cb+0x5a>
   2846c:	1da9      	adds	r1, r5, #6
   2846e:	f3af 8000 	nop.w
   28472:	2001      	movs	r0, #1
   28474:	bd70      	pop	{r4, r5, r6, pc}
   28476:	2c01      	cmp	r4, #1
   28478:	d1f3      	bne.n	28462 <cdcd_control_xfer_cb+0x5a>
   2847a:	e7e9      	b.n	28450 <cdcd_control_xfer_cb+0x48>
   2847c:	2c01      	cmp	r4, #1
   2847e:	d103      	bne.n	28488 <cdcd_control_xfer_cb+0x80>
   28480:	4630      	mov	r0, r6
   28482:	f7ff ffab 	bl	283dc <tud_control_status>
   28486:	e7ec      	b.n	28462 <cdcd_control_xfer_cb+0x5a>
   28488:	2c03      	cmp	r4, #3
   2848a:	d1ea      	bne.n	28462 <cdcd_control_xfer_cb+0x5a>
   2848c:	884a      	ldrh	r2, [r1, #2]
   2848e:	712a      	strb	r2, [r5, #4]
   28490:	f002 0101 	and.w	r1, r2, #1
   28494:	f081 0301 	eor.w	r3, r1, #1
   28498:	f885 302c 	strb.w	r3, [r5, #44]	; 0x2c
   2849c:	4b0d      	ldr	r3, [pc, #52]	; (284d4 <cdcd_control_xfer_cb+0xcc>)
   2849e:	2b00      	cmp	r3, #0
   284a0:	d0df      	beq.n	28462 <cdcd_control_xfer_cb+0x5a>
   284a2:	f3c2 0240 	ubfx	r2, r2, #1, #1
   284a6:	f3af 8000 	nop.w
   284aa:	2001      	movs	r0, #1
   284ac:	e7e2      	b.n	28474 <cdcd_control_xfer_cb+0x6c>
   284ae:	2c01      	cmp	r4, #1
   284b0:	d0e6      	beq.n	28480 <cdcd_control_xfer_cb+0x78>
   284b2:	2c03      	cmp	r4, #3
   284b4:	d1d5      	bne.n	28462 <cdcd_control_xfer_cb+0x5a>
   284b6:	4b08      	ldr	r3, [pc, #32]	; (284d8 <cdcd_control_xfer_cb+0xd0>)
   284b8:	2b00      	cmp	r3, #0
   284ba:	d0d2      	beq.n	28462 <cdcd_control_xfer_cb+0x5a>
   284bc:	8849      	ldrh	r1, [r1, #2]
   284be:	f3af 8000 	nop.w
   284c2:	2001      	movs	r0, #1
   284c4:	e7d6      	b.n	28474 <cdcd_control_xfer_cb+0x6c>
   284c6:	2000      	movs	r0, #0
   284c8:	e7d4      	b.n	28474 <cdcd_control_xfer_cb+0x6c>
   284ca:	bf00      	nop
   284cc:	200060a4 	.word	0x200060a4
	...

000284dc <cdcd_reset>:
   284dc:	4910      	ldr	r1, [pc, #64]	; (28520 <cdcd_reset+0x44>)
   284de:	b538      	push	{r3, r4, r5, lr}
   284e0:	2400      	movs	r4, #0
   284e2:	f8c1 41a0 	str.w	r4, [r1, #416]	; 0x1a0
   284e6:	f881 41a4 	strb.w	r4, [r1, #420]	; 0x1a4
   284ea:	f501 70d8 	add.w	r0, r1, #432	; 0x1b0
   284ee:	f7ff f931 	bl	27754 <tu_fifo_clear>
   284f2:	f501 70e2 	add.w	r0, r1, #452	; 0x1c4
   284f6:	f7ff f92d 	bl	27754 <tu_fifo_clear>
   284fa:	2501      	movs	r5, #1
   284fc:	f881 51cc 	strb.w	r5, [r1, #460]	; 0x1cc
   28500:	f8c1 42d8 	str.w	r4, [r1, #728]	; 0x2d8
   28504:	f881 42dc 	strb.w	r4, [r1, #732]	; 0x2dc
   28508:	f501 703a 	add.w	r0, r1, #744	; 0x2e8
   2850c:	f7ff f922 	bl	27754 <tu_fifo_clear>
   28510:	f501 703f 	add.w	r0, r1, #764	; 0x2fc
   28514:	f7ff f91e 	bl	27754 <tu_fifo_clear>
   28518:	f881 5304 	strb.w	r5, [r1, #772]	; 0x304
   2851c:	bd38      	pop	{r3, r4, r5, pc}
   2851e:	bf00      	nop
   28520:	200060a4 	.word	0x200060a4

00028524 <cdcd_init>:
   28524:	b5f8      	push	{r3, r4, r5, r6, r7, lr}
   28526:	4c31      	ldr	r4, [pc, #196]	; (285ec <cdcd_init+0xc8>)
   28528:	4d31      	ldr	r5, [pc, #196]	; (285f0 <cdcd_init+0xcc>)
   2852a:	2608      	movs	r6, #8
   2852c:	f44f 721c 	mov.w	r2, #624	; 0x270
   28530:	2100      	movs	r1, #0
   28532:	f504 70d0 	add.w	r0, r4, #416	; 0x1a0
   28536:	f002 fe33 	bl	2b1a0 <memset>
   2853a:	f884 61ac 	strb.w	r6, [r4, #428]	; 0x1ac
   2853e:	f504 72ec 	add.w	r2, r4, #472	; 0x1d8
   28542:	f884 62e4 	strb.w	r6, [r4, #740]	; 0x2e4
   28546:	f504 7644 	add.w	r6, r4, #784	; 0x310
   2854a:	2300      	movs	r3, #0
   2854c:	2001      	movs	r0, #1
   2854e:	217f      	movs	r1, #127	; 0x7f
   28550:	e9c4 65ba 	strd	r6, r5, [r4, #744]	; 0x2e8
   28554:	f04f 0cff 	mov.w	ip, #255	; 0xff
   28558:	f44f 4742 	mov.w	r7, #49664	; 0xc200
   2855c:	f8c4 21b0 	str.w	r2, [r4, #432]	; 0x1b0
   28560:	f504 7e06 	add.w	lr, r4, #536	; 0x218
   28564:	f64f 7280 	movw	r2, #65408	; 0xff80
   28568:	f504 7654 	add.w	r6, r4, #848	; 0x350
   2856c:	f8a4 31be 	strh.w	r3, [r4, #446]	; 0x1be
   28570:	e9c4 e571 	strd	lr, r5, [r4, #452]	; 0x1c4
   28574:	f8a4 31c0 	strh.w	r3, [r4, #448]	; 0x1c0
   28578:	f884 c1a5 	strb.w	ip, [r4, #421]	; 0x1a5
   2857c:	f8a4 31d2 	strh.w	r3, [r4, #466]	; 0x1d2
   28580:	f8a4 71a6 	strh.w	r7, [r4, #422]	; 0x1a6
   28584:	f8a4 31d4 	strh.w	r3, [r4, #468]	; 0x1d4
   28588:	f8a4 01a8 	strh.w	r0, [r4, #424]	; 0x1a8
   2858c:	f8a4 32f6 	strh.w	r3, [r4, #758]	; 0x2f6
   28590:	f8a4 31aa 	strh.w	r3, [r4, #426]	; 0x1aa
   28594:	f8c4 51b4 	str.w	r5, [r4, #436]	; 0x1b4
   28598:	f884 31b8 	strb.w	r3, [r4, #440]	; 0x1b8
   2859c:	f8a4 11bc 	strh.w	r1, [r4, #444]	; 0x1bc
   285a0:	f8a4 21ba 	strh.w	r2, [r4, #442]	; 0x1ba
   285a4:	f884 01cc 	strb.w	r0, [r4, #460]	; 0x1cc
   285a8:	f8a4 11d0 	strh.w	r1, [r4, #464]	; 0x1d0
   285ac:	f8a4 21ce 	strh.w	r2, [r4, #462]	; 0x1ce
   285b0:	f884 c2dd 	strb.w	ip, [r4, #733]	; 0x2dd
   285b4:	f8a4 72de 	strh.w	r7, [r4, #734]	; 0x2de
   285b8:	f8a4 02e0 	strh.w	r0, [r4, #736]	; 0x2e0
   285bc:	f8a4 32e2 	strh.w	r3, [r4, #738]	; 0x2e2
   285c0:	f884 32f0 	strb.w	r3, [r4, #752]	; 0x2f0
   285c4:	f8a4 12f4 	strh.w	r1, [r4, #756]	; 0x2f4
   285c8:	f8a4 22f2 	strh.w	r2, [r4, #754]	; 0x2f2
   285cc:	f8a4 32f8 	strh.w	r3, [r4, #760]	; 0x2f8
   285d0:	e9c4 65bf 	strd	r6, r5, [r4, #764]	; 0x2fc
   285d4:	f8a4 330a 	strh.w	r3, [r4, #778]	; 0x30a
   285d8:	f884 0304 	strb.w	r0, [r4, #772]	; 0x304
   285dc:	f8a4 1308 	strh.w	r1, [r4, #776]	; 0x308
   285e0:	f8a4 2306 	strh.w	r2, [r4, #774]	; 0x306
   285e4:	f8a4 330c 	strh.w	r3, [r4, #780]	; 0x30c
   285e8:	bdf8      	pop	{r3, r4, r5, r6, r7, pc}
   285ea:	bf00      	nop
   285ec:	200060a4 	.word	0x200060a4
   285f0:	00010040 	.word	0x00010040

000285f4 <configuration_reset>:
   285f4:	b570      	push	{r4, r5, r6, lr}
   285f6:	4e13      	ldr	r6, [pc, #76]	; (28644 <configuration_reset+0x50>)
   285f8:	4605      	mov	r5, r0
   285fa:	2400      	movs	r4, #0
   285fc:	b2e0      	uxtb	r0, r4
   285fe:	f7ff f9b9 	bl	27974 <get_driver>
   28602:	b928      	cbnz	r0, 28610 <configuration_reset+0x1c>
   28604:	4b10      	ldr	r3, [pc, #64]	; (28648 <configuration_reset+0x54>)
   28606:	681b      	ldr	r3, [r3, #0]
   28608:	07db      	lsls	r3, r3, #31
   2860a:	d500      	bpl.n	2860e <configuration_reset+0x1a>
   2860c:	be00      	bkpt	0x0000
   2860e:	bd70      	pop	{r4, r5, r6, pc}
   28610:	6843      	ldr	r3, [r0, #4]
   28612:	4628      	mov	r0, r5
   28614:	4798      	blx	r3
   28616:	3401      	adds	r4, #1
   28618:	f896 2194 	ldrb.w	r2, [r6, #404]	; 0x194
   2861c:	b2e3      	uxtb	r3, r4
   2861e:	429a      	cmp	r2, r3
   28620:	d2ec      	bcs.n	285fc <configuration_reset+0x8>
   28622:	2237      	movs	r2, #55	; 0x37
   28624:	2100      	movs	r1, #0
   28626:	4807      	ldr	r0, [pc, #28]	; (28644 <configuration_reset+0x50>)
   28628:	f002 fdba 	bl	2b1a0 <memset>
   2862c:	2210      	movs	r2, #16
   2862e:	21ff      	movs	r1, #255	; 0xff
   28630:	4806      	ldr	r0, [pc, #24]	; (2864c <configuration_reset+0x58>)
   28632:	f002 fdb5 	bl	2b1a0 <memset>
   28636:	e8bd 4070 	ldmia.w	sp!, {r4, r5, r6, lr}
   2863a:	4805      	ldr	r0, [pc, #20]	; (28650 <configuration_reset+0x5c>)
   2863c:	2212      	movs	r2, #18
   2863e:	21ff      	movs	r1, #255	; 0xff
   28640:	f002 bdae 	b.w	2b1a0 <memset>
   28644:	200060a4 	.word	0x200060a4
   28648:	e000edf0 	.word	0xe000edf0
   2864c:	200060a7 	.word	0x200060a7
   28650:	200060b7 	.word	0x200060b7

00028654 <UARTE1_IRQHandler>:
   28654:	b570      	push	{r4, r5, r6, lr}
   28656:	4a46      	ldr	r2, [pc, #280]	; (28770 <UARTE1_IRQHandler+0x11c>)
   28658:	f8d2 5124 	ldr.w	r5, [r2, #292]	; 0x124
   2865c:	b08a      	sub	sp, #40	; 0x28
   2865e:	2d00      	cmp	r5, #0
   28660:	d063      	beq.n	2872a <UARTE1_IRQHandler+0xd6>
   28662:	4b44      	ldr	r3, [pc, #272]	; (28774 <UARTE1_IRQHandler+0x120>)
   28664:	2100      	movs	r1, #0
   28666:	6019      	str	r1, [r3, #0]
   28668:	681b      	ldr	r3, [r3, #0]
   2866a:	9301      	str	r3, [sp, #4]
   2866c:	9b01      	ldr	r3, [sp, #4]
   2866e:	2302      	movs	r3, #2
   28670:	f88d 3018 	strb.w	r3, [sp, #24]
   28674:	f8d2 3480 	ldr.w	r3, [r2, #1152]	; 0x480
   28678:	f8c2 3480 	str.w	r3, [r2, #1152]	; 0x480
   2867c:	9309      	str	r3, [sp, #36]	; 0x24
   2867e:	f8d2 353c 	ldr.w	r3, [r2, #1340]	; 0x53c
   28682:	9308      	str	r3, [sp, #32]
   28684:	4b3c      	ldr	r3, [pc, #240]	; (28778 <UARTE1_IRQHandler+0x124>)
   28686:	6c5a      	ldr	r2, [r3, #68]	; 0x44
   28688:	9207      	str	r2, [sp, #28]
   2868a:	e9c3 1114 	strd	r1, r1, [r3, #80]	; 0x50
   2868e:	a806      	add	r0, sp, #24
   28690:	e9d3 120e 	ldrd	r1, r2, [r3, #56]	; 0x38
   28694:	4790      	blx	r2
   28696:	4936      	ldr	r1, [pc, #216]	; (28770 <UARTE1_IRQHandler+0x11c>)
   28698:	f8d1 3144 	ldr.w	r3, [r1, #324]	; 0x144
   2869c:	b17b      	cbz	r3, 286be <UARTE1_IRQHandler+0x6a>
   2869e:	4b37      	ldr	r3, [pc, #220]	; (2877c <UARTE1_IRQHandler+0x128>)
   286a0:	2200      	movs	r2, #0
   286a2:	601a      	str	r2, [r3, #0]
   286a4:	681b      	ldr	r3, [r3, #0]
   286a6:	9303      	str	r3, [sp, #12]
   286a8:	9b03      	ldr	r3, [sp, #12]
   286aa:	4b33      	ldr	r3, [pc, #204]	; (28778 <UARTE1_IRQHandler+0x124>)
   286ac:	6d18      	ldr	r0, [r3, #80]	; 0x50
   286ae:	b130      	cbz	r0, 286be <UARTE1_IRQHandler+0x6a>
   286b0:	e9c3 2214 	strd	r2, r2, [r3, #80]	; 0x50
   286b4:	f8d1 053c 	ldr.w	r0, [r1, #1340]	; 0x53c
   286b8:	6c59      	ldr	r1, [r3, #68]	; 0x44
   286ba:	f7ff f83b 	bl	27734 <rx_done_event.constprop.0>
   286be:	492c      	ldr	r1, [pc, #176]	; (28770 <UARTE1_IRQHandler+0x11c>)
   286c0:	f8d1 3120 	ldr.w	r3, [r1, #288]	; 0x120
   286c4:	b1b3      	cbz	r3, 286f4 <UARTE1_IRQHandler+0xa0>
   286c6:	4b2e      	ldr	r3, [pc, #184]	; (28780 <UARTE1_IRQHandler+0x12c>)
   286c8:	2200      	movs	r2, #0
   286ca:	601a      	str	r2, [r3, #0]
   286cc:	681b      	ldr	r3, [r3, #0]
   286ce:	9304      	str	r3, [sp, #16]
   286d0:	9b04      	ldr	r3, [sp, #16]
   286d2:	2301      	movs	r3, #1
   286d4:	60cb      	str	r3, [r1, #12]
   286d6:	4b28      	ldr	r3, [pc, #160]	; (28778 <UARTE1_IRQHandler+0x124>)
   286d8:	6cd8      	ldr	r0, [r3, #76]	; 0x4c
   286da:	b158      	cbz	r0, 286f4 <UARTE1_IRQHandler+0xa0>
   286dc:	f8d1 154c 	ldr.w	r1, [r1, #1356]	; 0x54c
   286e0:	9108      	str	r1, [sp, #32]
   286e2:	6c19      	ldr	r1, [r3, #64]	; 0x40
   286e4:	f88d 2018 	strb.w	r2, [sp, #24]
   286e8:	9107      	str	r1, [sp, #28]
   286ea:	64da      	str	r2, [r3, #76]	; 0x4c
   286ec:	a806      	add	r0, sp, #24
   286ee:	e9d3 120e 	ldrd	r1, r2, [r3, #56]	; 0x38
   286f2:	4790      	blx	r2
   286f4:	491e      	ldr	r1, [pc, #120]	; (28770 <UARTE1_IRQHandler+0x11c>)
   286f6:	f8d1 3158 	ldr.w	r3, [r1, #344]	; 0x158
   286fa:	b1a3      	cbz	r3, 28726 <UARTE1_IRQHandler+0xd2>
   286fc:	4b21      	ldr	r3, [pc, #132]	; (28784 <UARTE1_IRQHandler+0x130>)
   286fe:	2200      	movs	r2, #0
   28700:	601a      	str	r2, [r3, #0]
   28702:	681b      	ldr	r3, [r3, #0]
   28704:	9305      	str	r3, [sp, #20]
   28706:	9b05      	ldr	r3, [sp, #20]
   28708:	4b1b      	ldr	r3, [pc, #108]	; (28778 <UARTE1_IRQHandler+0x124>)
   2870a:	6cd8      	ldr	r0, [r3, #76]	; 0x4c
   2870c:	b158      	cbz	r0, 28726 <UARTE1_IRQHandler+0xd2>
   2870e:	f8d1 154c 	ldr.w	r1, [r1, #1356]	; 0x54c
   28712:	9108      	str	r1, [sp, #32]
   28714:	6c19      	ldr	r1, [r3, #64]	; 0x40
   28716:	f88d 2018 	strb.w	r2, [sp, #24]
   2871a:	9107      	str	r1, [sp, #28]
   2871c:	64da      	str	r2, [r3, #76]	; 0x4c
   2871e:	a806      	add	r0, sp, #24
   28720:	e9d3 120e 	ldrd	r1, r2, [r3, #56]	; 0x38
   28724:	4790      	blx	r2
   28726:	b00a      	add	sp, #40	; 0x28
   28728:	bd70      	pop	{r4, r5, r6, pc}
   2872a:	f8d2 3110 	ldr.w	r3, [r2, #272]	; 0x110
   2872e:	2b00      	cmp	r3, #0
   28730:	d0b1      	beq.n	28696 <UARTE1_IRQHandler+0x42>
   28732:	4b15      	ldr	r3, [pc, #84]	; (28788 <UARTE1_IRQHandler+0x134>)
   28734:	601d      	str	r5, [r3, #0]
   28736:	681b      	ldr	r3, [r3, #0]
   28738:	9302      	str	r3, [sp, #8]
   2873a:	9b02      	ldr	r3, [sp, #8]
   2873c:	4b0e      	ldr	r3, [pc, #56]	; (28778 <UARTE1_IRQHandler+0x124>)
   2873e:	f8d2 053c 	ldr.w	r0, [r2, #1340]	; 0x53c
   28742:	6d19      	ldr	r1, [r3, #80]	; 0x50
   28744:	4288      	cmp	r0, r1
   28746:	d1a6      	bne.n	28696 <UARTE1_IRQHandler+0x42>
   28748:	6d5c      	ldr	r4, [r3, #84]	; 0x54
   2874a:	6c59      	ldr	r1, [r3, #68]	; 0x44
   2874c:	b164      	cbz	r4, 28768 <UARTE1_IRQHandler+0x114>
   2874e:	f8d2 6200 	ldr.w	r6, [r2, #512]	; 0x200
   28752:	f026 0620 	bic.w	r6, r6, #32
   28756:	f8c2 6200 	str.w	r6, [r2, #512]	; 0x200
   2875a:	6c9a      	ldr	r2, [r3, #72]	; 0x48
   2875c:	651c      	str	r4, [r3, #80]	; 0x50
   2875e:	645a      	str	r2, [r3, #68]	; 0x44
   28760:	655d      	str	r5, [r3, #84]	; 0x54
   28762:	f7fe ffe7 	bl	27734 <rx_done_event.constprop.0>
   28766:	e796      	b.n	28696 <UARTE1_IRQHandler+0x42>
   28768:	651c      	str	r4, [r3, #80]	; 0x50
   2876a:	f7fe ffe3 	bl	27734 <rx_done_event.constprop.0>
   2876e:	e792      	b.n	28696 <UARTE1_IRQHandler+0x42>
   28770:	40028000 	.word	0x40028000
   28774:	40028124 	.word	0x40028124
   28778:	200060a4 	.word	0x200060a4
   2877c:	40028144 	.word	0x40028144
   28780:	40028120 	.word	0x40028120
   28784:	40028158 	.word	0x40028158
   28788:	40028110 	.word	0x40028110

0002878c <POWER_CLOCK_IRQHandler>:
   2878c:	b510      	push	{r4, lr}
   2878e:	f04f 4380 	mov.w	r3, #1073741824	; 0x40000000
   28792:	f8d3 4304 	ldr.w	r4, [r3, #772]	; 0x304
   28796:	0762      	lsls	r2, r4, #29
   28798:	d506      	bpl.n	287a8 <POWER_CLOCK_IRQHandler+0x1c>
   2879a:	f44f 7084 	mov.w	r0, #264	; 0x108
   2879e:	f7fe ffb9 	bl	27714 <nrf_power_event_get_and_clear.constprop.0>
   287a2:	b108      	cbz	r0, 287a8 <POWER_CLOCK_IRQHandler+0x1c>
   287a4:	2300      	movs	r3, #0
   287a6:	4798      	blx	r3
   287a8:	06a3      	lsls	r3, r4, #26
   287aa:	d506      	bpl.n	287ba <POWER_CLOCK_IRQHandler+0x2e>
   287ac:	f44f 708a 	mov.w	r0, #276	; 0x114
   287b0:	f7fe ffb0 	bl	27714 <nrf_power_event_get_and_clear.constprop.0>
   287b4:	b108      	cbz	r0, 287ba <POWER_CLOCK_IRQHandler+0x2e>
   287b6:	2000      	movs	r0, #0
   287b8:	4780      	blx	r0
   287ba:	0660      	lsls	r0, r4, #25
   287bc:	d507      	bpl.n	287ce <POWER_CLOCK_IRQHandler+0x42>
   287be:	f44f 708c 	mov.w	r0, #280	; 0x118
   287c2:	f7fe ffa7 	bl	27714 <nrf_power_event_get_and_clear.constprop.0>
   287c6:	b110      	cbz	r0, 287ce <POWER_CLOCK_IRQHandler+0x42>
   287c8:	2001      	movs	r0, #1
   287ca:	2300      	movs	r3, #0
   287cc:	4798      	blx	r3
   287ce:	0621      	lsls	r1, r4, #24
   287d0:	d509      	bpl.n	287e6 <POWER_CLOCK_IRQHandler+0x5a>
   287d2:	f44f 708e 	mov.w	r0, #284	; 0x11c
   287d6:	f7fe ff9d 	bl	27714 <nrf_power_event_get_and_clear.constprop.0>
   287da:	b120      	cbz	r0, 287e6 <POWER_CLOCK_IRQHandler+0x5a>
   287dc:	4b0f      	ldr	r3, [pc, #60]	; (2881c <POWER_CLOCK_IRQHandler+0x90>)
   287de:	2000      	movs	r0, #0
   287e0:	f8d3 3450 	ldr.w	r3, [r3, #1104]	; 0x450
   287e4:	4798      	blx	r3
   287e6:	05e2      	lsls	r2, r4, #23
   287e8:	d509      	bpl.n	287fe <POWER_CLOCK_IRQHandler+0x72>
   287ea:	f44f 7090 	mov.w	r0, #288	; 0x120
   287ee:	f7fe ff91 	bl	27714 <nrf_power_event_get_and_clear.constprop.0>
   287f2:	b120      	cbz	r0, 287fe <POWER_CLOCK_IRQHandler+0x72>
   287f4:	4b09      	ldr	r3, [pc, #36]	; (2881c <POWER_CLOCK_IRQHandler+0x90>)
   287f6:	2001      	movs	r0, #1
   287f8:	f8d3 3450 	ldr.w	r3, [r3, #1104]	; 0x450
   287fc:	4798      	blx	r3
   287fe:	05a3      	lsls	r3, r4, #22
   28800:	d50b      	bpl.n	2881a <POWER_CLOCK_IRQHandler+0x8e>
   28802:	f44f 7092 	mov.w	r0, #292	; 0x124
   28806:	f7fe ff85 	bl	27714 <nrf_power_event_get_and_clear.constprop.0>
   2880a:	b130      	cbz	r0, 2881a <POWER_CLOCK_IRQHandler+0x8e>
   2880c:	4b03      	ldr	r3, [pc, #12]	; (2881c <POWER_CLOCK_IRQHandler+0x90>)
   2880e:	e8bd 4010 	ldmia.w	sp!, {r4, lr}
   28812:	f8d3 3450 	ldr.w	r3, [r3, #1104]	; 0x450
   28816:	2002      	movs	r0, #2
   28818:	4718      	bx	r3
   2881a:	bd10      	pop	{r4, pc}
   2881c:	200060a4 	.word	0x200060a4

00028820 <tud_cdc_n_write_flush>:
   28820:	e92d 43f7 	stmdb	sp!, {r0, r1, r2, r4, r5, r6, r7, r8, r9, lr}
   28824:	4e2c      	ldr	r6, [pc, #176]	; (288d8 <tud_cdc_n_write_flush+0xb8>)
   28826:	7873      	ldrb	r3, [r6, #1]
   28828:	4605      	mov	r5, r0
   2882a:	b91b      	cbnz	r3, 28834 <tud_cdc_n_write_flush+0x14>
   2882c:	2000      	movs	r0, #0
   2882e:	b003      	add	sp, #12
   28830:	e8bd 83f0 	ldmia.w	sp!, {r4, r5, r6, r7, r8, r9, pc}
   28834:	7833      	ldrb	r3, [r6, #0]
   28836:	075a      	lsls	r2, r3, #29
   28838:	d4f8      	bmi.n	2882c <tud_cdc_n_write_flush+0xc>
   2883a:	f44f 749c 	mov.w	r4, #312	; 0x138
   2883e:	4344      	muls	r4, r0
   28840:	f506 78d0 	add.w	r8, r6, #416	; 0x1a0
   28844:	f104 0924 	add.w	r9, r4, #36	; 0x24
   28848:	44c1      	add	r9, r8
   2884a:	4648      	mov	r0, r9
   2884c:	f7fe ff8e 	bl	2776c <tu_fifo_count>
   28850:	2800      	cmp	r0, #0
   28852:	d0eb      	beq.n	2882c <tud_cdc_n_write_flush+0xc>
   28854:	1937      	adds	r7, r6, r4
   28856:	f897 01a2 	ldrb.w	r0, [r7, #418]	; 0x1a2
   2885a:	f7fe ff27 	bl	276ac <usbd_edpt_claim.constprop.0>
   2885e:	2800      	cmp	r0, #0
   28860:	d0e4      	beq.n	2882c <tud_cdc_n_write_flush+0xc>
   28862:	f8b7 31d2 	ldrh.w	r3, [r7, #466]	; 0x1d2
   28866:	f8b7 21d4 	ldrh.w	r2, [r7, #468]	; 0x1d4
   2886a:	34f8      	adds	r4, #248	; 0xf8
   2886c:	44a0      	add	r8, r4
   2886e:	b292      	uxth	r2, r2
   28870:	9200      	str	r2, [sp, #0]
   28872:	b29b      	uxth	r3, r3
   28874:	2240      	movs	r2, #64	; 0x40
   28876:	4641      	mov	r1, r8
   28878:	4648      	mov	r0, r9
   2887a:	f7ff fa52 	bl	27d22 <_tu_fifo_peek_n.constprop.0>
   2887e:	f8b7 31d4 	ldrh.w	r3, [r7, #468]	; 0x1d4
   28882:	b29a      	uxth	r2, r3
   28884:	fa10 f383 	uxtah	r3, r0, r3
   28888:	b29b      	uxth	r3, r3
   2888a:	429a      	cmp	r2, r3
   2888c:	4604      	mov	r4, r0
   2888e:	d803      	bhi.n	28898 <tud_cdc_n_write_flush+0x78>
   28890:	f8b7 21d0 	ldrh.w	r2, [r7, #464]	; 0x1d0
   28894:	429a      	cmp	r2, r3
   28896:	d207      	bcs.n	288a8 <tud_cdc_n_write_flush+0x88>
   28898:	f44f 729c 	mov.w	r2, #312	; 0x138
   2889c:	fb02 6205 	mla	r2, r2, r5, r6
   288a0:	f8b2 21ce 	ldrh.w	r2, [r2, #462]	; 0x1ce
   288a4:	4413      	add	r3, r2
   288a6:	b29b      	uxth	r3, r3
   288a8:	f44f 709c 	mov.w	r0, #312	; 0x138
   288ac:	fb00 6505 	mla	r5, r0, r5, r6
   288b0:	f895 01a2 	ldrb.w	r0, [r5, #418]	; 0x1a2
   288b4:	f8a5 31d4 	strh.w	r3, [r5, #468]	; 0x1d4
   288b8:	b154      	cbz	r4, 288d0 <tud_cdc_n_write_flush+0xb0>
   288ba:	4622      	mov	r2, r4
   288bc:	4641      	mov	r1, r8
   288be:	f7ff fbd1 	bl	28064 <usbd_edpt_xfer.constprop.0>
   288c2:	b938      	cbnz	r0, 288d4 <tud_cdc_n_write_flush+0xb4>
   288c4:	4b05      	ldr	r3, [pc, #20]	; (288dc <tud_cdc_n_write_flush+0xbc>)
   288c6:	681b      	ldr	r3, [r3, #0]
   288c8:	07db      	lsls	r3, r3, #31
   288ca:	d5af      	bpl.n	2882c <tud_cdc_n_write_flush+0xc>
   288cc:	be00      	bkpt	0x0000
   288ce:	e7ae      	b.n	2882e <tud_cdc_n_write_flush+0xe>
   288d0:	f7fe ff06 	bl	276e0 <usbd_edpt_release.constprop.0>
   288d4:	4620      	mov	r0, r4
   288d6:	e7aa      	b.n	2882e <tud_cdc_n_write_flush+0xe>
   288d8:	200060a4 	.word	0x200060a4
   288dc:	e000edf0 	.word	0xe000edf0

000288e0 <cdcd_xfer_cb>:
   288e0:	e92d 43f8 	stmdb	sp!, {r3, r4, r5, r6, r7, r8, r9, lr}
   288e4:	4c3e      	ldr	r4, [pc, #248]	; (289e0 <cdcd_xfer_cb+0x100>)
   288e6:	461d      	mov	r5, r3
   288e8:	f894 31a3 	ldrb.w	r3, [r4, #419]	; 0x1a3
   288ec:	428b      	cmp	r3, r1
   288ee:	460e      	mov	r6, r1
   288f0:	d015      	beq.n	2891e <cdcd_xfer_cb+0x3e>
   288f2:	f894 31a2 	ldrb.w	r3, [r4, #418]	; 0x1a2
   288f6:	428b      	cmp	r3, r1
   288f8:	d011      	beq.n	2891e <cdcd_xfer_cb+0x3e>
   288fa:	f894 32db 	ldrb.w	r3, [r4, #731]	; 0x2db
   288fe:	428b      	cmp	r3, r1
   28900:	d027      	beq.n	28952 <cdcd_xfer_cb+0x72>
   28902:	f894 32da 	ldrb.w	r3, [r4, #730]	; 0x2da
   28906:	428b      	cmp	r3, r1
   28908:	d023      	beq.n	28952 <cdcd_xfer_cb+0x72>
   2890a:	4b36      	ldr	r3, [pc, #216]	; (289e4 <cdcd_xfer_cb+0x104>)
   2890c:	681d      	ldr	r5, [r3, #0]
   2890e:	f015 0501 	ands.w	r5, r5, #1
   28912:	d001      	beq.n	28918 <cdcd_xfer_cb+0x38>
   28914:	be00      	bkpt	0x0000
   28916:	2500      	movs	r5, #0
   28918:	4628      	mov	r0, r5
   2891a:	e8bd 83f8 	ldmia.w	sp!, {r3, r4, r5, r6, r7, r8, r9, pc}
   2891e:	f504 74d0 	add.w	r4, r4, #416	; 0x1a0
   28922:	2700      	movs	r7, #0
   28924:	78e3      	ldrb	r3, [r4, #3]
   28926:	42b3      	cmp	r3, r6
   28928:	d10e      	bne.n	28948 <cdcd_xfer_cb+0x68>
   2892a:	b2aa      	uxth	r2, r5
   2892c:	b12a      	cbz	r2, 2893a <cdcd_xfer_cb+0x5a>
   2892e:	f104 01b8 	add.w	r1, r4, #184	; 0xb8
   28932:	f104 0010 	add.w	r0, r4, #16
   28936:	f7ff fa43 	bl	27dc0 <_tu_fifo_write_n.part.0.constprop.0>
   2893a:	4b2b      	ldr	r3, [pc, #172]	; (289e8 <cdcd_xfer_cb+0x108>)
   2893c:	b96b      	cbnz	r3, 2895a <cdcd_xfer_cb+0x7a>
   2893e:	4b2b      	ldr	r3, [pc, #172]	; (289ec <cdcd_xfer_cb+0x10c>)
   28940:	bb23      	cbnz	r3, 2898c <cdcd_xfer_cb+0xac>
   28942:	4620      	mov	r0, r4
   28944:	f7ff fc2a 	bl	2819c <_prep_out_transaction>
   28948:	78a3      	ldrb	r3, [r4, #2]
   2894a:	42b3      	cmp	r3, r6
   2894c:	d028      	beq.n	289a0 <cdcd_xfer_cb+0xc0>
   2894e:	2501      	movs	r5, #1
   28950:	e7e2      	b.n	28918 <cdcd_xfer_cb+0x38>
   28952:	f504 7436 	add.w	r4, r4, #728	; 0x2d8
   28956:	2701      	movs	r7, #1
   28958:	e7e4      	b.n	28924 <cdcd_xfer_cb+0x44>
   2895a:	7963      	ldrb	r3, [r4, #5]
   2895c:	2bff      	cmp	r3, #255	; 0xff
   2895e:	d0ee      	beq.n	2893e <cdcd_xfer_cb+0x5e>
   28960:	f105 08b8 	add.w	r8, r5, #184	; 0xb8
   28964:	f104 09b8 	add.w	r9, r4, #184	; 0xb8
   28968:	44a0      	add	r8, r4
   2896a:	45c1      	cmp	r9, r8
   2896c:	d0e7      	beq.n	2893e <cdcd_xfer_cb+0x5e>
   2896e:	7961      	ldrb	r1, [r4, #5]
   28970:	f819 3b01 	ldrb.w	r3, [r9], #1
   28974:	4299      	cmp	r1, r3
   28976:	d1f8      	bne.n	2896a <cdcd_xfer_cb+0x8a>
   28978:	8be2      	ldrh	r2, [r4, #30]
   2897a:	8c23      	ldrh	r3, [r4, #32]
   2897c:	b292      	uxth	r2, r2
   2897e:	b29b      	uxth	r3, r3
   28980:	429a      	cmp	r2, r3
   28982:	d0f2      	beq.n	2896a <cdcd_xfer_cb+0x8a>
   28984:	4638      	mov	r0, r7
   28986:	f3af 8000 	nop.w
   2898a:	e7ee      	b.n	2896a <cdcd_xfer_cb+0x8a>
   2898c:	8be2      	ldrh	r2, [r4, #30]
   2898e:	8c23      	ldrh	r3, [r4, #32]
   28990:	b292      	uxth	r2, r2
   28992:	b29b      	uxth	r3, r3
   28994:	429a      	cmp	r2, r3
   28996:	d0d4      	beq.n	28942 <cdcd_xfer_cb+0x62>
   28998:	4638      	mov	r0, r7
   2899a:	f3af 8000 	nop.w
   2899e:	e7d0      	b.n	28942 <cdcd_xfer_cb+0x62>
   289a0:	4b13      	ldr	r3, [pc, #76]	; (289f0 <cdcd_xfer_cb+0x110>)
   289a2:	b113      	cbz	r3, 289aa <cdcd_xfer_cb+0xca>
   289a4:	4638      	mov	r0, r7
   289a6:	f3af 8000 	nop.w
   289aa:	4638      	mov	r0, r7
   289ac:	f7ff ff38 	bl	28820 <tud_cdc_n_write_flush>
   289b0:	2800      	cmp	r0, #0
   289b2:	d1cc      	bne.n	2894e <cdcd_xfer_cb+0x6e>
   289b4:	f104 0024 	add.w	r0, r4, #36	; 0x24
   289b8:	f7fe fed8 	bl	2776c <tu_fifo_count>
   289bc:	2800      	cmp	r0, #0
   289be:	d1c6      	bne.n	2894e <cdcd_xfer_cb+0x6e>
   289c0:	2d00      	cmp	r5, #0
   289c2:	d0c4      	beq.n	2894e <cdcd_xfer_cb+0x6e>
   289c4:	f015 013f 	ands.w	r1, r5, #63	; 0x3f
   289c8:	d1c1      	bne.n	2894e <cdcd_xfer_cb+0x6e>
   289ca:	78a0      	ldrb	r0, [r4, #2]
   289cc:	f7fe fe6e 	bl	276ac <usbd_edpt_claim.constprop.0>
   289d0:	4605      	mov	r5, r0
   289d2:	2800      	cmp	r0, #0
   289d4:	d0bb      	beq.n	2894e <cdcd_xfer_cb+0x6e>
   289d6:	78a0      	ldrb	r0, [r4, #2]
   289d8:	460a      	mov	r2, r1
   289da:	f7ff fb43 	bl	28064 <usbd_edpt_xfer.constprop.0>
   289de:	e79b      	b.n	28918 <cdcd_xfer_cb+0x38>
   289e0:	200060a4 	.word	0x200060a4
   289e4:	e000edf0 	.word	0xe000edf0
	...

000289f4 <tud_cdc_n_write>:
   289f4:	4b0c      	ldr	r3, [pc, #48]	; (28a28 <tud_cdc_n_write+0x34>)
   289f6:	b570      	push	{r4, r5, r6, lr}
   289f8:	f44f 759c 	mov.w	r5, #312	; 0x138
   289fc:	fb05 3500 	mla	r5, r5, r0, r3
   28a00:	b294      	uxth	r4, r2
   28a02:	4606      	mov	r6, r0
   28a04:	3524      	adds	r5, #36	; 0x24
   28a06:	b124      	cbz	r4, 28a12 <tud_cdc_n_write+0x1e>
   28a08:	4622      	mov	r2, r4
   28a0a:	4628      	mov	r0, r5
   28a0c:	f7ff f9d8 	bl	27dc0 <_tu_fifo_write_n.part.0.constprop.0>
   28a10:	4604      	mov	r4, r0
   28a12:	4628      	mov	r0, r5
   28a14:	f7fe feaa 	bl	2776c <tu_fifo_count>
   28a18:	283f      	cmp	r0, #63	; 0x3f
   28a1a:	d902      	bls.n	28a22 <tud_cdc_n_write+0x2e>
   28a1c:	4630      	mov	r0, r6
   28a1e:	f7ff feff 	bl	28820 <tud_cdc_n_write_flush>
   28a22:	4620      	mov	r0, r4
   28a24:	bd70      	pop	{r4, r5, r6, pc}
   28a26:	bf00      	nop
   28a28:	20006244 	.word	0x20006244

00028a2c <tud_cdc_n_read>:
   28a2c:	e92d 41f3 	stmdb	sp!, {r0, r1, r4, r5, r6, r7, r8, lr}
   28a30:	4e1c      	ldr	r6, [pc, #112]	; (28aa4 <tud_cdc_n_read+0x78>)
   28a32:	f44f 759c 	mov.w	r5, #312	; 0x138
   28a36:	4345      	muls	r5, r0
   28a38:	eb06 0805 	add.w	r8, r6, r5
   28a3c:	4604      	mov	r4, r0
   28a3e:	f8b8 c1be 	ldrh.w	ip, [r8, #446]	; 0x1be
   28a42:	f8b8 31c0 	ldrh.w	r3, [r8, #448]	; 0x1c0
   28a46:	f506 70d0 	add.w	r0, r6, #416	; 0x1a0
   28a4a:	1947      	adds	r7, r0, r5
   28a4c:	b29b      	uxth	r3, r3
   28a4e:	3510      	adds	r5, #16
   28a50:	9300      	str	r3, [sp, #0]
   28a52:	b292      	uxth	r2, r2
   28a54:	fa1f f38c 	uxth.w	r3, ip
   28a58:	4428      	add	r0, r5
   28a5a:	f7ff f962 	bl	27d22 <_tu_fifo_peek_n.constprop.0>
   28a5e:	f8b8 31c0 	ldrh.w	r3, [r8, #448]	; 0x1c0
   28a62:	b29a      	uxth	r2, r3
   28a64:	fa10 f383 	uxtah	r3, r0, r3
   28a68:	b29b      	uxth	r3, r3
   28a6a:	429a      	cmp	r2, r3
   28a6c:	4605      	mov	r5, r0
   28a6e:	d803      	bhi.n	28a78 <tud_cdc_n_read+0x4c>
   28a70:	f8b8 21bc 	ldrh.w	r2, [r8, #444]	; 0x1bc
   28a74:	429a      	cmp	r2, r3
   28a76:	d207      	bcs.n	28a88 <tud_cdc_n_read+0x5c>
   28a78:	f44f 729c 	mov.w	r2, #312	; 0x138
   28a7c:	fb02 6204 	mla	r2, r2, r4, r6
   28a80:	f8b2 21ba 	ldrh.w	r2, [r2, #442]	; 0x1ba
   28a84:	4413      	add	r3, r2
   28a86:	b29b      	uxth	r3, r3
   28a88:	f44f 709c 	mov.w	r0, #312	; 0x138
   28a8c:	fb00 6604 	mla	r6, r0, r4, r6
   28a90:	4638      	mov	r0, r7
   28a92:	f8a6 31c0 	strh.w	r3, [r6, #448]	; 0x1c0
   28a96:	f7ff fb81 	bl	2819c <_prep_out_transaction>
   28a9a:	4628      	mov	r0, r5
   28a9c:	b002      	add	sp, #8
   28a9e:	e8bd 81f0 	ldmia.w	sp!, {r4, r5, r6, r7, r8, pc}
   28aa2:	bf00      	nop
   28aa4:	200060a4 	.word	0x200060a4

00028aa8 <tud_cdc_n_available>:
   28aa8:	b508      	push	{r3, lr}
   28aaa:	4b04      	ldr	r3, [pc, #16]	; (28abc <tud_cdc_n_available+0x14>)
   28aac:	f44f 729c 	mov.w	r2, #312	; 0x138
   28ab0:	fb02 3000 	mla	r0, r2, r0, r3
   28ab4:	3010      	adds	r0, #16
   28ab6:	f7fe fe59 	bl	2776c <tu_fifo_count>
   28aba:	bd08      	pop	{r3, pc}
   28abc:	20006244 	.word	0x20006244

00028ac0 <tud_cdc_n_connected>:
   28ac0:	4a09      	ldr	r2, [pc, #36]	; (28ae8 <tud_cdc_n_connected+0x28>)
   28ac2:	7851      	ldrb	r1, [r2, #1]
   28ac4:	4603      	mov	r3, r0
   28ac6:	f001 00ff 	and.w	r0, r1, #255	; 0xff
   28aca:	b161      	cbz	r1, 28ae6 <tud_cdc_n_connected+0x26>
   28acc:	7811      	ldrb	r1, [r2, #0]
   28ace:	0749      	lsls	r1, r1, #29
   28ad0:	d408      	bmi.n	28ae4 <tud_cdc_n_connected+0x24>
   28ad2:	f44f 709c 	mov.w	r0, #312	; 0x138
   28ad6:	fb00 2003 	mla	r0, r0, r3, r2
   28ada:	f890 01a4 	ldrb.w	r0, [r0, #420]	; 0x1a4
   28ade:	f000 0001 	and.w	r0, r0, #1
   28ae2:	4770      	bx	lr
   28ae4:	2000      	movs	r0, #0
   28ae6:	4770      	bx	lr
   28ae8:	200060a4 	.word	0x200060a4

00028aec <tud_task_ext>:
   28aec:	e92d 4ff0 	stmdb	sp!, {r4, r5, r6, r7, r8, r9, sl, fp, lr}
   28af0:	4b90      	ldr	r3, [pc, #576]	; (28d34 <tud_task_ext+0x248>)
   28af2:	781b      	ldrb	r3, [r3, #0]
   28af4:	2bff      	cmp	r3, #255	; 0xff
   28af6:	b087      	sub	sp, #28
   28af8:	f000 8401 	beq.w	292fe <tud_task_ext+0x812>
   28afc:	4c8e      	ldr	r4, [pc, #568]	; (28d38 <tud_task_ext+0x24c>)
   28afe:	f8d4 619c 	ldr.w	r6, [r4, #412]	; 0x19c
   28b02:	2000      	movs	r0, #0
   28b04:	6833      	ldr	r3, [r6, #0]
   28b06:	4798      	blx	r3
   28b08:	8a72      	ldrh	r2, [r6, #18]
   28b0a:	8ab1      	ldrh	r1, [r6, #20]
   28b0c:	b292      	uxth	r2, r2
   28b0e:	b289      	uxth	r1, r1
   28b10:	428a      	cmp	r2, r1
   28b12:	bf38      	it	cc
   28b14:	89f0      	ldrhcc	r0, [r6, #14]
   28b16:	eba2 0301 	sub.w	r3, r2, r1
   28b1a:	b29f      	uxth	r7, r3
   28b1c:	bf38      	it	cc
   28b1e:	1a3b      	subcc	r3, r7, r0
   28b20:	8930      	ldrh	r0, [r6, #8]
   28b22:	bf38      	it	cc
   28b24:	b29f      	uxthcc	r7, r3
   28b26:	42b8      	cmp	r0, r7
   28b28:	4625      	mov	r5, r4
   28b2a:	d20c      	bcs.n	28b46 <tud_task_ext+0x5a>
   28b2c:	4282      	cmp	r2, r0
   28b2e:	d304      	bcc.n	28b3a <tud_task_ext+0x4e>
   28b30:	8a37      	ldrh	r7, [r6, #16]
   28b32:	1a13      	subs	r3, r2, r0
   28b34:	b29b      	uxth	r3, r3
   28b36:	429f      	cmp	r7, r3
   28b38:	d203      	bcs.n	28b42 <tud_task_ext+0x56>
   28b3a:	89f3      	ldrh	r3, [r6, #14]
   28b3c:	4403      	add	r3, r0
   28b3e:	1ad2      	subs	r2, r2, r3
   28b40:	b293      	uxth	r3, r2
   28b42:	82b3      	strh	r3, [r6, #20]
   28b44:	4607      	mov	r7, r0
   28b46:	bb2f      	cbnz	r7, 28b94 <tud_task_ext+0xa8>
   28b48:	8ab3      	ldrh	r3, [r6, #20]
   28b4a:	b29a      	uxth	r2, r3
   28b4c:	fa17 f383 	uxtah	r3, r7, r3
   28b50:	b29b      	uxth	r3, r3
   28b52:	429a      	cmp	r2, r3
   28b54:	d802      	bhi.n	28b5c <tud_task_ext+0x70>
   28b56:	8a32      	ldrh	r2, [r6, #16]
   28b58:	429a      	cmp	r2, r3
   28b5a:	d202      	bcs.n	28b62 <tud_task_ext+0x76>
   28b5c:	89f2      	ldrh	r2, [r6, #14]
   28b5e:	4413      	add	r3, r2
   28b60:	b29b      	uxth	r3, r3
   28b62:	82b3      	strh	r3, [r6, #20]
   28b64:	2001      	movs	r0, #1
   28b66:	6833      	ldr	r3, [r6, #0]
   28b68:	4798      	blx	r3
   28b6a:	2f00      	cmp	r7, #0
   28b6c:	f000 83c7 	beq.w	292fe <tud_task_ext+0x812>
   28b70:	f89d 300d 	ldrb.w	r3, [sp, #13]
   28b74:	3b01      	subs	r3, #1
   28b76:	2b07      	cmp	r3, #7
   28b78:	f200 835f 	bhi.w	2923a <tud_task_ext+0x74e>
   28b7c:	e8df f013 	tbh	[pc, r3, lsl #1]
   28b80:	00220015 	.word	0x00220015
   28b84:	03cb035d 	.word	0x03cb035d
   28b88:	003103da 	.word	0x003103da
   28b8c:	03e6033d 	.word	0x03e6033d
   28b90:	1a09      	subs	r1, r1, r0
   28b92:	b289      	uxth	r1, r1
   28b94:	4288      	cmp	r0, r1
   28b96:	d9fb      	bls.n	28b90 <tud_task_ext+0xa4>
   28b98:	8972      	ldrh	r2, [r6, #10]
   28b9a:	6873      	ldr	r3, [r6, #4]
   28b9c:	a803      	add	r0, sp, #12
   28b9e:	fb02 3101 	mla	r1, r2, r1, r3
   28ba2:	f002 fad5 	bl	2b150 <memcpy>
   28ba6:	2701      	movs	r7, #1
   28ba8:	e7ce      	b.n	28b48 <tud_task_ext+0x5c>
   28baa:	f89d 000c 	ldrb.w	r0, [sp, #12]
   28bae:	f7ff fd21 	bl	285f4 <configuration_reset>
   28bb2:	4862      	ldr	r0, [pc, #392]	; (28d3c <tud_task_ext+0x250>)
   28bb4:	2214      	movs	r2, #20
   28bb6:	2100      	movs	r1, #0
   28bb8:	f002 faf2 	bl	2b1a0 <memset>
   28bbc:	f89d 3010 	ldrb.w	r3, [sp, #16]
   28bc0:	70a3      	strb	r3, [r4, #2]
   28bc2:	e79b      	b.n	28afc <tud_task_ext+0x10>
   28bc4:	f89d 000c 	ldrb.w	r0, [sp, #12]
   28bc8:	f7ff fd14 	bl	285f4 <configuration_reset>
   28bcc:	485b      	ldr	r0, [pc, #364]	; (28d3c <tud_task_ext+0x250>)
   28bce:	2214      	movs	r2, #20
   28bd0:	2100      	movs	r1, #0
   28bd2:	f002 fae5 	bl	2b1a0 <memset>
   28bd6:	4b5a      	ldr	r3, [pc, #360]	; (28d40 <tud_task_ext+0x254>)
   28bd8:	2b00      	cmp	r3, #0
   28bda:	d08f      	beq.n	28afc <tud_task_ext+0x10>
   28bdc:	f3af 8000 	nop.w
   28be0:	e78c      	b.n	28afc <tud_task_ext+0x10>
   28be2:	7823      	ldrb	r3, [r4, #0]
   28be4:	f89d 9010 	ldrb.w	r9, [sp, #16]
   28be8:	f89d 600c 	ldrb.w	r6, [sp, #12]
   28bec:	f043 0301 	orr.w	r3, r3, #1
   28bf0:	7023      	strb	r3, [r4, #0]
   28bf2:	f894 3025 	ldrb.w	r3, [r4, #37]	; 0x25
   28bf6:	f36f 0300 	bfc	r3, #0, #1
   28bfa:	f884 3025 	strb.w	r3, [r4, #37]	; 0x25
   28bfe:	f894 3025 	ldrb.w	r3, [r4, #37]	; 0x25
   28c02:	f36f 0382 	bfc	r3, #2, #1
   28c06:	f884 3025 	strb.w	r3, [r4, #37]	; 0x25
   28c0a:	f894 3026 	ldrb.w	r3, [r4, #38]	; 0x26
   28c0e:	f36f 0300 	bfc	r3, #0, #1
   28c12:	f884 3026 	strb.w	r3, [r4, #38]	; 0x26
   28c16:	f894 3026 	ldrb.w	r3, [r4, #38]	; 0x26
   28c1a:	f009 0260 	and.w	r2, r9, #96	; 0x60
   28c1e:	f36f 0382 	bfc	r3, #2, #1
   28c22:	f884 3026 	strb.w	r3, [r4, #38]	; 0x26
   28c26:	2a60      	cmp	r2, #96	; 0x60
   28c28:	f04f 0300 	mov.w	r3, #0
   28c2c:	f8c4 3190 	str.w	r3, [r4, #400]	; 0x190
   28c30:	d10b      	bne.n	28c4a <tud_task_ext+0x15e>
   28c32:	4b44      	ldr	r3, [pc, #272]	; (28d44 <tud_task_ext+0x258>)
   28c34:	681b      	ldr	r3, [r3, #0]
   28c36:	07dc      	lsls	r4, r3, #31
   28c38:	d500      	bpl.n	28c3c <tud_task_ext+0x150>
   28c3a:	be00      	bkpt	0x0000
   28c3c:	2000      	movs	r0, #0
   28c3e:	f7ff f99f 	bl	27f80 <dcd_edpt_stall.constprop.0>
   28c42:	2080      	movs	r0, #128	; 0x80
   28c44:	f7ff f99c 	bl	27f80 <dcd_edpt_stall.constprop.0>
   28c48:	e758      	b.n	28afc <tud_task_ext+0x10>
   28c4a:	2a40      	cmp	r2, #64	; 0x40
   28c4c:	d10d      	bne.n	28c6a <tud_task_ext+0x17e>
   28c4e:	4b3e      	ldr	r3, [pc, #248]	; (28d48 <tud_task_ext+0x25c>)
   28c50:	2b00      	cmp	r3, #0
   28c52:	d0f3      	beq.n	28c3c <tud_task_ext+0x150>
   28c54:	aa04      	add	r2, sp, #16
   28c56:	2101      	movs	r1, #1
   28c58:	4630      	mov	r0, r6
   28c5a:	f8c4 3190 	str.w	r3, [r4, #400]	; 0x190
   28c5e:	f3af 8000 	nop.w
   28c62:	2800      	cmp	r0, #0
   28c64:	f47f af4a 	bne.w	28afc <tud_task_ext+0x10>
   28c68:	e7e8      	b.n	28c3c <tud_task_ext+0x150>
   28c6a:	f009 091f 	and.w	r9, r9, #31
   28c6e:	f1b9 0f01 	cmp.w	r9, #1
   28c72:	f000 820f 	beq.w	29094 <tud_task_ext+0x5a8>
   28c76:	f1b9 0f02 	cmp.w	r9, #2
   28c7a:	f000 8237 	beq.w	290ec <tud_task_ext+0x600>
   28c7e:	f1b9 0f00 	cmp.w	r9, #0
   28c82:	d1d6      	bne.n	28c32 <tud_task_ext+0x146>
   28c84:	2a20      	cmp	r2, #32
   28c86:	d110      	bne.n	28caa <tud_task_ext+0x1be>
   28c88:	f89d 3014 	ldrb.w	r3, [sp, #20]
   28c8c:	2b0f      	cmp	r3, #15
   28c8e:	d8d5      	bhi.n	28c3c <tud_task_ext+0x150>
   28c90:	441d      	add	r5, r3
   28c92:	78e8      	ldrb	r0, [r5, #3]
   28c94:	f7fe fe6e 	bl	27974 <get_driver>
   28c98:	2800      	cmp	r0, #0
   28c9a:	d0cf      	beq.n	28c3c <tud_task_ext+0x150>
   28c9c:	f100 010c 	add.w	r1, r0, #12
   28ca0:	aa04      	add	r2, sp, #16
   28ca2:	4630      	mov	r0, r6
   28ca4:	f7fe fe50 	bl	27948 <invoke_class_control.isra.0>
   28ca8:	e7db      	b.n	28c62 <tud_task_ext+0x176>
   28caa:	2a00      	cmp	r2, #0
   28cac:	d1c1      	bne.n	28c32 <tud_task_ext+0x146>
   28cae:	f89d 3011 	ldrb.w	r3, [sp, #17]
   28cb2:	2b09      	cmp	r3, #9
   28cb4:	d8bd      	bhi.n	28c32 <tud_task_ext+0x146>
   28cb6:	a201      	add	r2, pc, #4	; (adr r2, 28cbc <tud_task_ext+0x1d0>)
   28cb8:	f852 f023 	ldr.w	pc, [r2, r3, lsl #2]
   28cbc:	00029037 	.word	0x00029037
   28cc0:	0002901b 	.word	0x0002901b
   28cc4:	00028c33 	.word	0x00028c33
   28cc8:	00028fff 	.word	0x00028fff
   28ccc:	00028c33 	.word	0x00028c33
   28cd0:	00028ce5 	.word	0x00028ce5
   28cd4:	00028ee7 	.word	0x00028ee7
   28cd8:	00028c33 	.word	0x00028c33
   28cdc:	00028d1d 	.word	0x00028d1d
   28ce0:	00028d51 	.word	0x00028d51
   28ce4:	aa06      	add	r2, sp, #24
   28ce6:	e912 0003 	ldmdb	r2, {r0, r1}
   28cea:	4b14      	ldr	r3, [pc, #80]	; (28d3c <tud_task_ext+0x250>)
   28cec:	2200      	movs	r2, #0
   28cee:	e9c4 2262 	strd	r2, r2, [r4, #392]	; 0x188
   28cf2:	e883 0003 	stmia.w	r3, {r0, r1}
   28cf6:	4b15      	ldr	r3, [pc, #84]	; (28d4c <tud_task_ext+0x260>)
   28cf8:	f8d3 1400 	ldr.w	r1, [r3, #1024]	; 0x400
   28cfc:	f8d3 0400 	ldr.w	r0, [r3, #1024]	; 0x400
   28d00:	4301      	orrs	r1, r0
   28d02:	f8c3 1400 	str.w	r1, [r3, #1024]	; 0x400
   28d06:	f8c3 2158 	str.w	r2, [r3, #344]	; 0x158
   28d0a:	f44f 0280 	mov.w	r2, #4194304	; 0x400000
   28d0e:	f8c3 2304 	str.w	r2, [r3, #772]	; 0x304
   28d12:	7823      	ldrb	r3, [r4, #0]
   28d14:	f043 0302 	orr.w	r3, r3, #2
   28d18:	7023      	strb	r3, [r4, #0]
   28d1a:	e6ef      	b.n	28afc <tud_task_ext+0x10>
   28d1c:	7863      	ldrb	r3, [r4, #1]
   28d1e:	f88d 300a 	strb.w	r3, [sp, #10]
   28d22:	f10d 020a 	add.w	r2, sp, #10
   28d26:	2301      	movs	r3, #1
   28d28:	a904      	add	r1, sp, #16
   28d2a:	4630      	mov	r0, r6
   28d2c:	f7ff fb18 	bl	28360 <tud_control_xfer>
   28d30:	e6e4      	b.n	28afc <tud_task_ext+0x10>
   28d32:	bf00      	nop
   28d34:	20006004 	.word	0x20006004
   28d38:	200060a4 	.word	0x200060a4
   28d3c:	20006224 	.word	0x20006224
   28d40:	00000000 	.word	0x00000000
   28d44:	e000edf0 	.word	0xe000edf0
   28d48:	00000000 	.word	0x00000000
   28d4c:	40027000 	.word	0x40027000
   28d50:	f89d b012 	ldrb.w	fp, [sp, #18]
   28d54:	7863      	ldrb	r3, [r4, #1]
   28d56:	459b      	cmp	fp, r3
   28d58:	f000 8098 	beq.w	28e8c <tud_task_ext+0x3a0>
   28d5c:	7863      	ldrb	r3, [r4, #1]
   28d5e:	2b00      	cmp	r3, #0
   28d60:	d043      	beq.n	28dea <tud_task_ext+0x2fe>
   28d62:	4bbd      	ldr	r3, [pc, #756]	; (29058 <tud_task_ext+0x56c>)
   28d64:	2280      	movs	r2, #128	; 0x80
   28d66:	f8c3 2084 	str.w	r2, [r3, #132]	; 0x84
   28d6a:	f3bf 8f4f 	dsb	sy
   28d6e:	f3bf 8f6f 	isb	sy
   28d72:	2701      	movs	r7, #1
   28d74:	f8df 8314 	ldr.w	r8, [pc, #788]	; 2908c <tud_task_ext+0x5a0>
   28d78:	f8df a314 	ldr.w	sl, [pc, #788]	; 29090 <tud_task_ext+0x5a4>
   28d7c:	46b9      	mov	r9, r7
   28d7e:	f107 030c 	add.w	r3, r7, #12
   28d82:	1cba      	adds	r2, r7, #2
   28d84:	fa09 f202 	lsl.w	r2, r9, r2
   28d88:	fa09 f303 	lsl.w	r3, r9, r3
   28d8c:	4313      	orrs	r3, r2
   28d8e:	f8c8 3308 	str.w	r3, [r8, #776]	; 0x308
   28d92:	00bb      	lsls	r3, r7, #2
   28d94:	f103 4380 	add.w	r3, r3, #1073741824	; 0x40000000
   28d98:	f503 331c 	add.w	r3, r3, #159744	; 0x27000
   28d9c:	2100      	movs	r1, #0
   28d9e:	6059      	str	r1, [r3, #4]
   28da0:	eb0a 1047 	add.w	r0, sl, r7, lsl #5
   28da4:	6299      	str	r1, [r3, #40]	; 0x28
   28da6:	2220      	movs	r2, #32
   28da8:	3701      	adds	r7, #1
   28daa:	f002 f9f9 	bl	2b1a0 <memset>
   28dae:	2f08      	cmp	r7, #8
   28db0:	f04f 0100 	mov.w	r1, #0
   28db4:	d1e3      	bne.n	28d7e <tud_task_ext+0x292>
   28db6:	4ba9      	ldr	r3, [pc, #676]	; (2905c <tud_task_ext+0x570>)
   28db8:	f8c8 3308 	str.w	r3, [r8, #776]	; 0x308
   28dbc:	2220      	movs	r2, #32
   28dbe:	f8c8 151c 	str.w	r1, [r8, #1308]	; 0x51c
   28dc2:	f505 70ae 	add.w	r0, r5, #348	; 0x15c
   28dc6:	f8c8 1024 	str.w	r1, [r8, #36]	; 0x24
   28dca:	f8c8 1048 	str.w	r1, [r8, #72]	; 0x48
   28dce:	f002 f9e7 	bl	2b1a0 <memset>
   28dd2:	f8c8 9514 	str.w	r9, [r8, #1300]	; 0x514
   28dd6:	f8c8 9510 	str.w	r9, [r8, #1296]	; 0x510
   28dda:	4b9f      	ldr	r3, [pc, #636]	; (29058 <tud_task_ext+0x56c>)
   28ddc:	2280      	movs	r2, #128	; 0x80
   28dde:	605a      	str	r2, [r3, #4]
   28de0:	78a7      	ldrb	r7, [r4, #2]
   28de2:	4630      	mov	r0, r6
   28de4:	f7ff fc06 	bl	285f4 <configuration_reset>
   28de8:	70a7      	strb	r7, [r4, #2]
   28dea:	f1bb 0f00 	cmp.w	fp, #0
   28dee:	d04d      	beq.n	28e8c <tud_task_ext+0x3a0>
   28df0:	7823      	ldrb	r3, [r4, #0]
   28df2:	499b      	ldr	r1, [pc, #620]	; (29060 <tud_task_ext+0x574>)
   28df4:	f023 0330 	bic.w	r3, r3, #48	; 0x30
   28df8:	7023      	strb	r3, [r4, #0]
   28dfa:	784b      	ldrb	r3, [r1, #1]
   28dfc:	2b0b      	cmp	r3, #11
   28dfe:	bf03      	ittte	eq
   28e00:	780b      	ldrbeq	r3, [r1, #0]
   28e02:	78cf      	ldrbeq	r7, [r1, #3]
   28e04:	18c9      	addeq	r1, r1, r3
   28e06:	2701      	movne	r7, #1
   28e08:	784b      	ldrb	r3, [r1, #1]
   28e0a:	2b04      	cmp	r3, #4
   28e0c:	d008      	beq.n	28e20 <tud_task_ext+0x334>
   28e0e:	4b95      	ldr	r3, [pc, #596]	; (29064 <tud_task_ext+0x578>)
   28e10:	681b      	ldr	r3, [r3, #0]
   28e12:	07d9      	lsls	r1, r3, #31
   28e14:	f57f af0d 	bpl.w	28c32 <tud_task_ext+0x146>
   28e18:	be00      	bkpt	0x0000
   28e1a:	e70a      	b.n	28c32 <tud_task_ext+0x146>
   28e1c:	4601      	mov	r1, r0
   28e1e:	e7ec      	b.n	28dfa <tud_task_ext+0x30e>
   28e20:	4b91      	ldr	r3, [pc, #580]	; (29068 <tud_task_ext+0x57c>)
   28e22:	1a5a      	subs	r2, r3, r1
   28e24:	b292      	uxth	r2, r2
   28e26:	f04f 0a00 	mov.w	sl, #0
   28e2a:	fa5f f98a 	uxtb.w	r9, sl
   28e2e:	4648      	mov	r0, r9
   28e30:	e9cd 1200 	strd	r1, r2, [sp]
   28e34:	f7fe fd9e 	bl	27974 <get_driver>
   28e38:	e9dd 1200 	ldrd	r1, r2, [sp]
   28e3c:	4680      	mov	r8, r0
   28e3e:	2800      	cmp	r0, #0
   28e40:	d0e5      	beq.n	28e0e <tud_task_ext+0x322>
   28e42:	6883      	ldr	r3, [r0, #8]
   28e44:	4630      	mov	r0, r6
   28e46:	e9cd 1200 	strd	r1, r2, [sp]
   28e4a:	4798      	blx	r3
   28e4c:	2808      	cmp	r0, #8
   28e4e:	e9dd 1200 	ldrd	r1, r2, [sp]
   28e52:	d93f      	bls.n	28ed4 <tud_task_ext+0x3e8>
   28e54:	4282      	cmp	r2, r0
   28e56:	d33d      	bcc.n	28ed4 <tud_task_ext+0x3e8>
   28e58:	2f01      	cmp	r7, #1
   28e5a:	d105      	bne.n	28e68 <tud_task_ext+0x37c>
   28e5c:	f8d8 3008 	ldr.w	r3, [r8, #8]
   28e60:	4a82      	ldr	r2, [pc, #520]	; (2906c <tud_task_ext+0x580>)
   28e62:	4293      	cmp	r3, r2
   28e64:	bf08      	it	eq
   28e66:	2702      	moveq	r7, #2
   28e68:	2200      	movs	r2, #0
   28e6a:	b2d3      	uxtb	r3, r2
   28e6c:	429f      	cmp	r7, r3
   28e6e:	d814      	bhi.n	28e9a <tud_task_ext+0x3ae>
   28e70:	4408      	add	r0, r1
   28e72:	4288      	cmp	r0, r1
   28e74:	d81f      	bhi.n	28eb6 <tud_task_ext+0x3ca>
   28e76:	f895 3194 	ldrb.w	r3, [r5, #404]	; 0x194
   28e7a:	454b      	cmp	r3, r9
   28e7c:	d3c7      	bcc.n	28e0e <tud_task_ext+0x322>
   28e7e:	4b7a      	ldr	r3, [pc, #488]	; (29068 <tud_task_ext+0x57c>)
   28e80:	4298      	cmp	r0, r3
   28e82:	d3cb      	bcc.n	28e1c <tud_task_ext+0x330>
   28e84:	4b7a      	ldr	r3, [pc, #488]	; (29070 <tud_task_ext+0x584>)
   28e86:	b10b      	cbz	r3, 28e8c <tud_task_ext+0x3a0>
   28e88:	f3af 8000 	nop.w
   28e8c:	a904      	add	r1, sp, #16
   28e8e:	4630      	mov	r0, r6
   28e90:	f884 b001 	strb.w	fp, [r4, #1]
   28e94:	f7ff faa2 	bl	283dc <tud_control_status>
   28e98:	e630      	b.n	28afc <tud_task_ext+0x10>
   28e9a:	f891 c002 	ldrb.w	ip, [r1, #2]
   28e9e:	4463      	add	r3, ip
   28ea0:	fa55 f383 	uxtab	r3, r5, r3
   28ea4:	3201      	adds	r2, #1
   28ea6:	f893 c003 	ldrb.w	ip, [r3, #3]
   28eaa:	f1bc 0fff 	cmp.w	ip, #255	; 0xff
   28eae:	d1ae      	bne.n	28e0e <tud_task_ext+0x322>
   28eb0:	f883 9003 	strb.w	r9, [r3, #3]
   28eb4:	e7d9      	b.n	28e6a <tud_task_ext+0x37e>
   28eb6:	784b      	ldrb	r3, [r1, #1]
   28eb8:	2b05      	cmp	r3, #5
   28eba:	d108      	bne.n	28ece <tud_task_ext+0x3e2>
   28ebc:	788a      	ldrb	r2, [r1, #2]
   28ebe:	f002 037f 	and.w	r3, r2, #127	; 0x7f
   28ec2:	eb05 0343 	add.w	r3, r5, r3, lsl #1
   28ec6:	eb03 13d2 	add.w	r3, r3, r2, lsr #7
   28eca:	f883 9013 	strb.w	r9, [r3, #19]
   28ece:	780b      	ldrb	r3, [r1, #0]
   28ed0:	4419      	add	r1, r3
   28ed2:	e7ce      	b.n	28e72 <tud_task_ext+0x386>
   28ed4:	f895 0194 	ldrb.w	r0, [r5, #404]	; 0x194
   28ed8:	f10a 0a01 	add.w	sl, sl, #1
   28edc:	fa5f f38a 	uxtb.w	r3, sl
   28ee0:	4298      	cmp	r0, r3
   28ee2:	d2a2      	bcs.n	28e2a <tud_task_ext+0x33e>
   28ee4:	e793      	b.n	28e0e <tud_task_ext+0x322>
   28ee6:	f8bd 0012 	ldrh.w	r0, [sp, #18]
   28eea:	0a03      	lsrs	r3, r0, #8
   28eec:	1e5a      	subs	r2, r3, #1
   28eee:	b2c0      	uxtb	r0, r0
   28ef0:	2a0e      	cmp	r2, #14
   28ef2:	f63f aea3 	bhi.w	28c3c <tud_task_ext+0x150>
   28ef6:	a101      	add	r1, pc, #4	; (adr r1, 28efc <tud_task_ext+0x410>)
   28ef8:	f851 f022 	ldr.w	pc, [r1, r2, lsl #2]
   28efc:	00028f39 	.word	0x00028f39
   28f00:	00028f67 	.word	0x00028f67
   28f04:	00028f85 	.word	0x00028f85
   28f08:	00028c3d 	.word	0x00028c3d
   28f0c:	00028c3d 	.word	0x00028c3d
   28f10:	00028fdf 	.word	0x00028fdf
   28f14:	00028f67 	.word	0x00028f67
   28f18:	00028c3d 	.word	0x00028c3d
   28f1c:	00028c3d 	.word	0x00028c3d
   28f20:	00028c3d 	.word	0x00028c3d
   28f24:	00028c3d 	.word	0x00028c3d
   28f28:	00028c3d 	.word	0x00028c3d
   28f2c:	00028c3d 	.word	0x00028c3d
   28f30:	00028c3d 	.word	0x00028c3d
   28f34:	00028f47 	.word	0x00028f47
   28f38:	4a4b      	ldr	r2, [pc, #300]	; (29068 <tud_task_ext+0x57c>)
   28f3a:	2312      	movs	r3, #18
   28f3c:	a904      	add	r1, sp, #16
   28f3e:	4630      	mov	r0, r6
   28f40:	f7ff fa0e 	bl	28360 <tud_control_xfer>
   28f44:	e68d      	b.n	28c62 <tud_task_ext+0x176>
   28f46:	4b4b      	ldr	r3, [pc, #300]	; (29074 <tud_task_ext+0x588>)
   28f48:	2b00      	cmp	r3, #0
   28f4a:	f43f ae77 	beq.w	28c3c <tud_task_ext+0x150>
   28f4e:	f3af 8000 	nop.w
   28f52:	4602      	mov	r2, r0
   28f54:	2800      	cmp	r0, #0
   28f56:	f43f ae6c 	beq.w	28c32 <tud_task_ext+0x146>
   28f5a:	8853      	ldrh	r3, [r2, #2]
   28f5c:	a904      	add	r1, sp, #16
   28f5e:	4630      	mov	r0, r6
   28f60:	f7ff f9fe 	bl	28360 <tud_control_xfer>
   28f64:	e67d      	b.n	28c62 <tud_task_ext+0x176>
   28f66:	2b02      	cmp	r3, #2
   28f68:	d101      	bne.n	28f6e <tud_task_ext+0x482>
   28f6a:	4a43      	ldr	r2, [pc, #268]	; (29078 <tud_task_ext+0x58c>)
   28f6c:	e7f5      	b.n	28f5a <tud_task_ext+0x46e>
   28f6e:	4b43      	ldr	r3, [pc, #268]	; (2907c <tud_task_ext+0x590>)
   28f70:	2b00      	cmp	r3, #0
   28f72:	f43f ae63 	beq.w	28c3c <tud_task_ext+0x150>
   28f76:	f3af 8000 	nop.w
   28f7a:	4602      	mov	r2, r0
   28f7c:	2800      	cmp	r0, #0
   28f7e:	f43f ae58 	beq.w	28c32 <tud_task_ext+0x146>
   28f82:	e7ea      	b.n	28f5a <tud_task_ext+0x46e>
   28f84:	b988      	cbnz	r0, 28faa <tud_task_ext+0x4be>
   28f86:	4b3e      	ldr	r3, [pc, #248]	; (29080 <tud_task_ext+0x594>)
   28f88:	f8b3 30bb 	ldrh.w	r3, [r3, #187]	; 0xbb
   28f8c:	f8a4 3456 	strh.w	r3, [r4, #1110]	; 0x456
   28f90:	2301      	movs	r3, #1
   28f92:	005b      	lsls	r3, r3, #1
   28f94:	3302      	adds	r3, #2
   28f96:	f443 7240 	orr.w	r2, r3, #768	; 0x300
   28f9a:	f8a4 2454 	strh.w	r2, [r4, #1108]	; 0x454
   28f9e:	a904      	add	r1, sp, #16
   28fa0:	4a38      	ldr	r2, [pc, #224]	; (29084 <tud_task_ext+0x598>)
   28fa2:	4630      	mov	r0, r6
   28fa4:	f7ff f9dc 	bl	28360 <tud_control_xfer>
   28fa8:	e65b      	b.n	28c62 <tud_task_ext+0x176>
   28faa:	2804      	cmp	r0, #4
   28fac:	f63f ae46 	bhi.w	28c3c <tud_task_ext+0x150>
   28fb0:	4b33      	ldr	r3, [pc, #204]	; (29080 <tud_task_ext+0x594>)
   28fb2:	eb03 0080 	add.w	r0, r3, r0, lsl #2
   28fb6:	f8d0 50c0 	ldr.w	r5, [r0, #192]	; 0xc0
   28fba:	4628      	mov	r0, r5
   28fbc:	f002 fa00 	bl	2b3c0 <strlen>
   28fc0:	b2c3      	uxtb	r3, r0
   28fc2:	2b1f      	cmp	r3, #31
   28fc4:	bf28      	it	cs
   28fc6:	231f      	movcs	r3, #31
   28fc8:	4a2e      	ldr	r2, [pc, #184]	; (29084 <tud_task_ext+0x598>)
   28fca:	4628      	mov	r0, r5
   28fcc:	18e9      	adds	r1, r5, r3
   28fce:	4281      	cmp	r1, r0
   28fd0:	f102 0202 	add.w	r2, r2, #2
   28fd4:	d0dd      	beq.n	28f92 <tud_task_ext+0x4a6>
   28fd6:	f810 5b01 	ldrb.w	r5, [r0], #1
   28fda:	8015      	strh	r5, [r2, #0]
   28fdc:	e7f7      	b.n	28fce <tud_task_ext+0x4e2>
   28fde:	4b2a      	ldr	r3, [pc, #168]	; (29088 <tud_task_ext+0x59c>)
   28fe0:	2b00      	cmp	r3, #0
   28fe2:	f43f ae2b 	beq.w	28c3c <tud_task_ext+0x150>
   28fe6:	f3af 8000 	nop.w
   28fea:	4602      	mov	r2, r0
   28fec:	2800      	cmp	r0, #0
   28fee:	f43f ae25 	beq.w	28c3c <tud_task_ext+0x150>
   28ff2:	7803      	ldrb	r3, [r0, #0]
   28ff4:	a904      	add	r1, sp, #16
   28ff6:	4630      	mov	r0, r6
   28ff8:	f7ff f9b2 	bl	28360 <tud_control_xfer>
   28ffc:	e631      	b.n	28c62 <tud_task_ext+0x176>
   28ffe:	f8bd 3012 	ldrh.w	r3, [sp, #18]
   29002:	2b01      	cmp	r3, #1
   29004:	f47f ae1a 	bne.w	28c3c <tud_task_ext+0x150>
   29008:	7823      	ldrb	r3, [r4, #0]
   2900a:	a904      	add	r1, sp, #16
   2900c:	f043 0308 	orr.w	r3, r3, #8
   29010:	4630      	mov	r0, r6
   29012:	7023      	strb	r3, [r4, #0]
   29014:	f7ff f9e2 	bl	283dc <tud_control_status>
   29018:	e570      	b.n	28afc <tud_task_ext+0x10>
   2901a:	f8bd 3012 	ldrh.w	r3, [sp, #18]
   2901e:	2b01      	cmp	r3, #1
   29020:	f47f ae0c 	bne.w	28c3c <tud_task_ext+0x150>
   29024:	7823      	ldrb	r3, [r4, #0]
   29026:	a904      	add	r1, sp, #16
   29028:	f36f 03c3 	bfc	r3, #3, #1
   2902c:	4630      	mov	r0, r6
   2902e:	7023      	strb	r3, [r4, #0]
   29030:	f7ff f9d4 	bl	283dc <tud_control_status>
   29034:	e562      	b.n	28afc <tud_task_ext+0x10>
   29036:	7823      	ldrb	r3, [r4, #0]
   29038:	f3c3 1240 	ubfx	r2, r3, #5, #1
   2903c:	089b      	lsrs	r3, r3, #2
   2903e:	f003 0302 	and.w	r3, r3, #2
   29042:	4313      	orrs	r3, r2
   29044:	f8ad 300a 	strh.w	r3, [sp, #10]
   29048:	f10d 020a 	add.w	r2, sp, #10
   2904c:	2302      	movs	r3, #2
   2904e:	a904      	add	r1, sp, #16
   29050:	4630      	mov	r0, r6
   29052:	f7ff f985 	bl	28360 <tud_control_xfer>
   29056:	e551      	b.n	28afc <tud_task_ext+0x10>
   29058:	e000e100 	.word	0xe000e100
   2905c:	00300800 	.word	0x00300800
   29060:	0002b5a9 	.word	0x0002b5a9
   29064:	e000edf0 	.word	0xe000edf0
   29068:	0002b62d 	.word	0x0002b62d
   2906c:	00028205 	.word	0x00028205
	...
   29078:	0002b5a0 	.word	0x0002b5a0
   2907c:	00000000 	.word	0x00000000
   29080:	0002b584 	.word	0x0002b584
   29084:	200064f8 	.word	0x200064f8
   29088:	00000000 	.word	0x00000000
   2908c:	40027000 	.word	0x40027000
   29090:	20006100 	.word	0x20006100
   29094:	f89d 3014 	ldrb.w	r3, [sp, #20]
   29098:	2b0f      	cmp	r3, #15
   2909a:	f63f adcf 	bhi.w	28c3c <tud_task_ext+0x150>
   2909e:	441d      	add	r5, r3
   290a0:	78e8      	ldrb	r0, [r5, #3]
   290a2:	f7fe fc67 	bl	27974 <get_driver>
   290a6:	2800      	cmp	r0, #0
   290a8:	f43f adc8 	beq.w	28c3c <tud_task_ext+0x150>
   290ac:	f100 010c 	add.w	r1, r0, #12
   290b0:	aa04      	add	r2, sp, #16
   290b2:	4630      	mov	r0, r6
   290b4:	f7fe fc48 	bl	27948 <invoke_class_control.isra.0>
   290b8:	2800      	cmp	r0, #0
   290ba:	f47f ad1f 	bne.w	28afc <tud_task_ext+0x10>
   290be:	f89d 3010 	ldrb.w	r3, [sp, #16]
   290c2:	f013 0360 	ands.w	r3, r3, #96	; 0x60
   290c6:	f47f adb9 	bne.w	28c3c <tud_task_ext+0x150>
   290ca:	f89d 2011 	ldrb.w	r2, [sp, #17]
   290ce:	f1a2 010a 	sub.w	r1, r2, #10
   290d2:	2901      	cmp	r1, #1
   290d4:	f63f adb2 	bhi.w	28c3c <tud_task_ext+0x150>
   290d8:	2a0a      	cmp	r2, #10
   290da:	f8c4 3190 	str.w	r3, [r4, #400]	; 0x190
   290de:	f43f ae1e 	beq.w	28d1e <tud_task_ext+0x232>
   290e2:	a904      	add	r1, sp, #16
   290e4:	4630      	mov	r0, r6
   290e6:	f7ff f979 	bl	283dc <tud_control_status>
   290ea:	e507      	b.n	28afc <tud_task_ext+0x10>
   290ec:	f89d 1014 	ldrb.w	r1, [sp, #20]
   290f0:	f001 0b7f 	and.w	fp, r1, #127	; 0x7f
   290f4:	f1bb 0f08 	cmp.w	fp, #8
   290f8:	f63f ad9b 	bhi.w	28c32 <tud_task_ext+0x146>
   290fc:	eb05 084b 	add.w	r8, r5, fp, lsl #1
   29100:	eb08 18d1 	add.w	r8, r8, r1, lsr #7
   29104:	ea4f 034b 	mov.w	r3, fp, lsl #1
   29108:	f898 0013 	ldrb.w	r0, [r8, #19]
   2910c:	9201      	str	r2, [sp, #4]
   2910e:	09cf      	lsrs	r7, r1, #7
   29110:	9300      	str	r3, [sp, #0]
   29112:	f7fe fc2f 	bl	27974 <get_driver>
   29116:	9a01      	ldr	r2, [sp, #4]
   29118:	4682      	mov	sl, r0
   2911a:	b14a      	cbz	r2, 29130 <tud_task_ext+0x644>
   2911c:	2800      	cmp	r0, #0
   2911e:	f43f ad8d 	beq.w	28c3c <tud_task_ext+0x150>
   29122:	f100 010c 	add.w	r1, r0, #12
   29126:	aa04      	add	r2, sp, #16
   29128:	4630      	mov	r0, r6
   2912a:	f7fe fc0d 	bl	27948 <invoke_class_control.isra.0>
   2912e:	e598      	b.n	28c62 <tud_task_ext+0x176>
   29130:	f89d 2011 	ldrb.w	r2, [sp, #17]
   29134:	f002 00fd 	and.w	r0, r2, #253	; 0xfd
   29138:	2801      	cmp	r0, #1
   2913a:	d007      	beq.n	2914c <tud_task_ext+0x660>
   2913c:	2a00      	cmp	r2, #0
   2913e:	f47f ad78 	bne.w	28c32 <tud_task_ext+0x146>
   29142:	f898 3025 	ldrb.w	r3, [r8, #37]	; 0x25
   29146:	f3c3 0340 	ubfx	r3, r3, #1, #1
   2914a:	e77b      	b.n	29044 <tud_task_ext+0x558>
   2914c:	f8bd 0012 	ldrh.w	r0, [sp, #18]
   29150:	bb58      	cbnz	r0, 291aa <tud_task_ext+0x6be>
   29152:	f108 0820 	add.w	r8, r8, #32
   29156:	2a01      	cmp	r2, #1
   29158:	f898 2005 	ldrb.w	r2, [r8, #5]
   2915c:	d138      	bne.n	291d0 <tud_task_ext+0x6e4>
   2915e:	0792      	lsls	r2, r2, #30
   29160:	d523      	bpl.n	291aa <tud_task_ext+0x6be>
   29162:	f011 0f77 	tst.w	r1, #119	; 0x77
   29166:	d011      	beq.n	2918c <tud_task_ext+0x6a0>
   29168:	4a7c      	ldr	r2, [pc, #496]	; (2935c <tud_task_ext+0x870>)
   2916a:	f441 7080 	orr.w	r0, r1, #256	; 0x100
   2916e:	f8c2 150c 	str.w	r1, [r2, #1292]	; 0x50c
   29172:	f8c2 050c 	str.w	r0, [r2, #1292]	; 0x50c
   29176:	f8c2 1518 	str.w	r1, [r2, #1304]	; 0x518
   2917a:	b91f      	cbnz	r7, 29184 <tud_task_ext+0x698>
   2917c:	f50b 7b94 	add.w	fp, fp, #296	; 0x128
   29180:	f842 702b 	str.w	r7, [r2, fp, lsl #2]
   29184:	f3bf 8f6f 	isb	sy
   29188:	f3bf 8f4f 	dsb	sy
   2918c:	9b00      	ldr	r3, [sp, #0]
   2918e:	441d      	add	r5, r3
   29190:	19eb      	adds	r3, r5, r7
   29192:	f893 2025 	ldrb.w	r2, [r3, #37]	; 0x25
   29196:	f36f 0241 	bfc	r2, #1, #1
   2919a:	f883 2025 	strb.w	r2, [r3, #37]	; 0x25
   2919e:	f893 2025 	ldrb.w	r2, [r3, #37]	; 0x25
   291a2:	f36f 0200 	bfc	r2, #0, #1
   291a6:	f883 2025 	strb.w	r2, [r3, #37]	; 0x25
   291aa:	f1ba 0f00 	cmp.w	sl, #0
   291ae:	f43f aca5 	beq.w	28afc <tud_task_ext+0x10>
   291b2:	aa04      	add	r2, sp, #16
   291b4:	f10a 010c 	add.w	r1, sl, #12
   291b8:	4630      	mov	r0, r6
   291ba:	f7fe fbc5 	bl	27948 <invoke_class_control.isra.0>
   291be:	2300      	movs	r3, #0
   291c0:	f8c4 3190 	str.w	r3, [r4, #400]	; 0x190
   291c4:	f894 3026 	ldrb.w	r3, [r4, #38]	; 0x26
   291c8:	07dd      	lsls	r5, r3, #31
   291ca:	f53f ac97 	bmi.w	28afc <tud_task_ext+0x10>
   291ce:	e788      	b.n	290e2 <tud_task_ext+0x5f6>
   291d0:	0793      	lsls	r3, r2, #30
   291d2:	d4ea      	bmi.n	291aa <tud_task_ext+0x6be>
   291d4:	4608      	mov	r0, r1
   291d6:	f7fe fed3 	bl	27f80 <dcd_edpt_stall.constprop.0>
   291da:	9b00      	ldr	r3, [sp, #0]
   291dc:	441d      	add	r5, r3
   291de:	19eb      	adds	r3, r5, r7
   291e0:	f893 2025 	ldrb.w	r2, [r3, #37]	; 0x25
   291e4:	f042 0202 	orr.w	r2, r2, #2
   291e8:	f883 2025 	strb.w	r2, [r3, #37]	; 0x25
   291ec:	f893 2025 	ldrb.w	r2, [r3, #37]	; 0x25
   291f0:	f042 0201 	orr.w	r2, r2, #1
   291f4:	f883 2025 	strb.w	r2, [r3, #37]	; 0x25
   291f8:	e7d7      	b.n	291aa <tud_task_ext+0x6be>
   291fa:	f89d 1010 	ldrb.w	r1, [sp, #16]
   291fe:	f001 067f 	and.w	r6, r1, #127	; 0x7f
   29202:	eb05 0546 	add.w	r5, r5, r6, lsl #1
   29206:	eb05 15d1 	add.w	r5, r5, r1, lsr #7
   2920a:	09c8      	lsrs	r0, r1, #7
   2920c:	f895 2025 	ldrb.w	r2, [r5, #37]	; 0x25
   29210:	f36f 0200 	bfc	r2, #0, #1
   29214:	f885 2025 	strb.w	r2, [r5, #37]	; 0x25
   29218:	f895 2025 	ldrb.w	r2, [r5, #37]	; 0x25
   2921c:	f36f 0282 	bfc	r2, #2, #1
   29220:	f885 2025 	strb.w	r2, [r5, #37]	; 0x25
   29224:	2e00      	cmp	r6, #0
   29226:	d161      	bne.n	292ec <tud_task_ext+0x800>
   29228:	f894 3180 	ldrb.w	r3, [r4, #384]	; 0x180
   2922c:	f89d 700c 	ldrb.w	r7, [sp, #12]
   29230:	9d05      	ldr	r5, [sp, #20]
   29232:	ebb0 1fd3 	cmp.w	r0, r3, lsr #7
   29236:	d017      	beq.n	29268 <tud_task_ext+0x77c>
   29238:	b135      	cbz	r5, 29248 <tud_task_ext+0x75c>
   2923a:	4b49      	ldr	r3, [pc, #292]	; (29360 <tud_task_ext+0x874>)
   2923c:	681b      	ldr	r3, [r3, #0]
   2923e:	07db      	lsls	r3, r3, #31
   29240:	f57f ac5c 	bpl.w	28afc <tud_task_ext+0x10>
   29244:	be00      	bkpt	0x0000
   29246:	e459      	b.n	28afc <tud_task_ext+0x10>
   29248:	4b46      	ldr	r3, [pc, #280]	; (29364 <tud_task_ext+0x878>)
   2924a:	b11b      	cbz	r3, 29254 <tud_task_ext+0x768>
   2924c:	4946      	ldr	r1, [pc, #280]	; (29368 <tud_task_ext+0x87c>)
   2924e:	4638      	mov	r0, r7
   29250:	f3af 8000 	nop.w
   29254:	f8d4 3190 	ldr.w	r3, [r4, #400]	; 0x190
   29258:	2b00      	cmp	r3, #0
   2925a:	f43f ac4f 	beq.w	28afc <tud_task_ext+0x10>
   2925e:	4a42      	ldr	r2, [pc, #264]	; (29368 <tud_task_ext+0x87c>)
   29260:	2103      	movs	r1, #3
   29262:	4638      	mov	r0, r7
   29264:	4798      	blx	r3
   29266:	e449      	b.n	28afc <tud_task_ext+0x10>
   29268:	f994 3180 	ldrsb.w	r3, [r4, #384]	; 0x180
   2926c:	2b00      	cmp	r3, #0
   2926e:	db08      	blt.n	29282 <tud_task_ext+0x796>
   29270:	f8d4 0188 	ldr.w	r0, [r4, #392]	; 0x188
   29274:	2800      	cmp	r0, #0
   29276:	f43f ac41 	beq.w	28afc <tud_task_ext+0x10>
   2927a:	493c      	ldr	r1, [pc, #240]	; (2936c <tud_task_ext+0x880>)
   2927c:	462a      	mov	r2, r5
   2927e:	f001 ff67 	bl	2b150 <memcpy>
   29282:	f8d4 2188 	ldr.w	r2, [r4, #392]	; 0x188
   29286:	f8b4 318e 	ldrh.w	r3, [r4, #398]	; 0x18e
   2928a:	442a      	add	r2, r5
   2928c:	442b      	add	r3, r5
   2928e:	f8c4 2188 	str.w	r2, [r4, #392]	; 0x188
   29292:	f8b4 2186 	ldrh.w	r2, [r4, #390]	; 0x186
   29296:	b29b      	uxth	r3, r3
   29298:	429a      	cmp	r2, r3
   2929a:	f8a4 318e 	strh.w	r3, [r4, #398]	; 0x18e
   2929e:	d001      	beq.n	292a4 <tud_task_ext+0x7b8>
   292a0:	2d3f      	cmp	r5, #63	; 0x3f
   292a2:	d81c      	bhi.n	292de <tud_task_ext+0x7f2>
   292a4:	f8d4 3190 	ldr.w	r3, [r4, #400]	; 0x190
   292a8:	b96b      	cbnz	r3, 292c6 <tud_task_ext+0x7da>
   292aa:	f994 3180 	ldrsb.w	r3, [r4, #384]	; 0x180
   292ae:	2200      	movs	r2, #0
   292b0:	2b00      	cmp	r3, #0
   292b2:	bfb4      	ite	lt
   292b4:	4630      	movlt	r0, r6
   292b6:	2080      	movge	r0, #128	; 0x80
   292b8:	4611      	mov	r1, r2
   292ba:	f7fe fed3 	bl	28064 <usbd_edpt_xfer.constprop.0>
   292be:	2800      	cmp	r0, #0
   292c0:	f47f ac1c 	bne.w	28afc <tud_task_ext+0x10>
   292c4:	e7b9      	b.n	2923a <tud_task_ext+0x74e>
   292c6:	4a28      	ldr	r2, [pc, #160]	; (29368 <tud_task_ext+0x87c>)
   292c8:	2102      	movs	r1, #2
   292ca:	4638      	mov	r0, r7
   292cc:	4798      	blx	r3
   292ce:	2800      	cmp	r0, #0
   292d0:	d1eb      	bne.n	292aa <tud_task_ext+0x7be>
   292d2:	f7fe fe55 	bl	27f80 <dcd_edpt_stall.constprop.0>
   292d6:	2080      	movs	r0, #128	; 0x80
   292d8:	f7fe fe52 	bl	27f80 <dcd_edpt_stall.constprop.0>
   292dc:	e40e      	b.n	28afc <tud_task_ext+0x10>
   292de:	4638      	mov	r0, r7
   292e0:	f7ff f812 	bl	28308 <_data_stage_xact>
   292e4:	2800      	cmp	r0, #0
   292e6:	f47f ac09 	bne.w	28afc <tud_task_ext+0x10>
   292ea:	e7a6      	b.n	2923a <tud_task_ext+0x74e>
   292ec:	7ce8      	ldrb	r0, [r5, #19]
   292ee:	f7fe fb41 	bl	27974 <get_driver>
   292f2:	b938      	cbnz	r0, 29304 <tud_task_ext+0x818>
   292f4:	4b1a      	ldr	r3, [pc, #104]	; (29360 <tud_task_ext+0x874>)
   292f6:	681b      	ldr	r3, [r3, #0]
   292f8:	07d8      	lsls	r0, r3, #31
   292fa:	d500      	bpl.n	292fe <tud_task_ext+0x812>
   292fc:	be00      	bkpt	0x0000
   292fe:	b007      	add	sp, #28
   29300:	e8bd 8ff0 	ldmia.w	sp!, {r4, r5, r6, r7, r8, r9, sl, fp, pc}
   29304:	6904      	ldr	r4, [r0, #16]
   29306:	9b05      	ldr	r3, [sp, #20]
   29308:	f89d 2011 	ldrb.w	r2, [sp, #17]
   2930c:	f89d 000c 	ldrb.w	r0, [sp, #12]
   29310:	47a0      	blx	r4
   29312:	f7ff bbf3 	b.w	28afc <tud_task_ext+0x10>
   29316:	7823      	ldrb	r3, [r4, #0]
   29318:	07d9      	lsls	r1, r3, #31
   2931a:	f57f abef 	bpl.w	28afc <tud_task_ext+0x10>
   2931e:	4b14      	ldr	r3, [pc, #80]	; (29370 <tud_task_ext+0x884>)
   29320:	2b00      	cmp	r3, #0
   29322:	f43f abeb 	beq.w	28afc <tud_task_ext+0x10>
   29326:	7820      	ldrb	r0, [r4, #0]
   29328:	f3c0 00c0 	ubfx	r0, r0, #3, #1
   2932c:	f3af 8000 	nop.w
   29330:	f7ff bbe4 	b.w	28afc <tud_task_ext+0x10>
   29334:	7823      	ldrb	r3, [r4, #0]
   29336:	07da      	lsls	r2, r3, #31
   29338:	f57f abe0 	bpl.w	28afc <tud_task_ext+0x10>
   2933c:	4b0d      	ldr	r3, [pc, #52]	; (29374 <tud_task_ext+0x888>)
   2933e:	2b00      	cmp	r3, #0
   29340:	f43f abdc 	beq.w	28afc <tud_task_ext+0x10>
   29344:	f3af 8000 	nop.w
   29348:	f7ff bbd8 	b.w	28afc <tud_task_ext+0x10>
   2934c:	9b04      	ldr	r3, [sp, #16]
   2934e:	2b00      	cmp	r3, #0
   29350:	f43f abd4 	beq.w	28afc <tud_task_ext+0x10>
   29354:	9805      	ldr	r0, [sp, #20]
   29356:	4798      	blx	r3
   29358:	f7ff bbd0 	b.w	28afc <tud_task_ext+0x10>
   2935c:	40027000 	.word	0x40027000
   29360:	e000edf0 	.word	0xe000edf0
   29364:	00000000 	.word	0x00000000
   29368:	20006224 	.word	0x20006224
   2936c:	200064b4 	.word	0x200064b4
	...

00029378 <tud_init>:
   29378:	b5f8      	push	{r3, r4, r5, r6, r7, lr}
   2937a:	4e18      	ldr	r6, [pc, #96]	; (293dc <tud_init+0x64>)
   2937c:	7833      	ldrb	r3, [r6, #0]
   2937e:	2bff      	cmp	r3, #255	; 0xff
   29380:	4607      	mov	r7, r0
   29382:	d129      	bne.n	293d8 <tud_init+0x60>
   29384:	4c16      	ldr	r4, [pc, #88]	; (293e0 <tud_init+0x68>)
   29386:	2237      	movs	r2, #55	; 0x37
   29388:	2100      	movs	r1, #0
   2938a:	4620      	mov	r0, r4
   2938c:	f001 ff08 	bl	2b1a0 <memset>
   29390:	f106 0008 	add.w	r0, r6, #8
   29394:	1d31      	adds	r1, r6, #4
   29396:	f7fe f9dd 	bl	27754 <tu_fifo_clear>
   2939a:	4b12      	ldr	r3, [pc, #72]	; (293e4 <tud_init+0x6c>)
   2939c:	f8c4 119c 	str.w	r1, [r4, #412]	; 0x19c
   293a0:	b12b      	cbz	r3, 293ae <tud_init+0x36>
   293a2:	f504 70ca 	add.w	r0, r4, #404	; 0x194
   293a6:	f3af 8000 	nop.w
   293aa:	f8c4 0198 	str.w	r0, [r4, #408]	; 0x198
   293ae:	2500      	movs	r5, #0
   293b0:	b2e8      	uxtb	r0, r5
   293b2:	f7fe fadf 	bl	27974 <get_driver>
   293b6:	b918      	cbnz	r0, 293c0 <tud_init+0x48>
   293b8:	e8bd 40f8 	ldmia.w	sp!, {r3, r4, r5, r6, r7, lr}
   293bc:	f7fe ba04 	b.w	277c8 <tud_init.part.0>
   293c0:	6803      	ldr	r3, [r0, #0]
   293c2:	4798      	blx	r3
   293c4:	3501      	adds	r5, #1
   293c6:	f894 2194 	ldrb.w	r2, [r4, #404]	; 0x194
   293ca:	b2eb      	uxtb	r3, r5
   293cc:	429a      	cmp	r2, r3
   293ce:	d2ef      	bcs.n	293b0 <tud_init+0x38>
   293d0:	7037      	strb	r7, [r6, #0]
   293d2:	4b05      	ldr	r3, [pc, #20]	; (293e8 <tud_init+0x70>)
   293d4:	2280      	movs	r2, #128	; 0x80
   293d6:	605a      	str	r2, [r3, #4]
   293d8:	2001      	movs	r0, #1
   293da:	bdf8      	pop	{r3, r4, r5, r6, r7, pc}
   293dc:	20006004 	.word	0x20006004
   293e0:	200060a4 	.word	0x200060a4
   293e4:	00000000 	.word	0x00000000
   293e8:	e000e100 	.word	0xe000e100

000293ec <usb_init>:
   293ec:	b570      	push	{r4, r5, r6, lr}
   293ee:	4d2f      	ldr	r5, [pc, #188]	; (294ac <usb_init+0xc0>)
   293f0:	492f      	ldr	r1, [pc, #188]	; (294b0 <usb_init+0xc4>)
   293f2:	f895 3020 	ldrb.w	r3, [r5, #32]
   293f6:	2424      	movs	r4, #36	; 0x24
   293f8:	fb04 1303 	mla	r3, r4, r3, r1
   293fc:	f893 2058 	ldrb.w	r2, [r3, #88]	; 0x58
   29400:	b9fa      	cbnz	r2, 29442 <usb_init+0x56>
   29402:	482c      	ldr	r0, [pc, #176]	; (294b4 <usb_init+0xc8>)
   29404:	2610      	movs	r6, #16
   29406:	f8c0 6508 	str.w	r6, [r0, #1288]	; 0x508
   2940a:	2603      	movs	r6, #3
   2940c:	f8c0 6710 	str.w	r6, [r0, #1808]	; 0x710
   29410:	f8c0 2714 	str.w	r2, [r0, #1812]	; 0x714
   29414:	69e8      	ldr	r0, [r5, #28]
   29416:	f04f 75eb 	mov.w	r5, #30801920	; 0x1d60000
   2941a:	f8c0 5524 	str.w	r5, [r0, #1316]	; 0x524
   2941e:	f8c0 256c 	str.w	r2, [r0, #1388]	; 0x56c
   29422:	f8c0 450c 	str.w	r4, [r0, #1292]	; 0x50c
   29426:	2425      	movs	r4, #37	; 0x25
   29428:	f8c0 4514 	str.w	r4, [r0, #1300]	; 0x514
   2942c:	2408      	movs	r4, #8
   2942e:	e9c3 220e 	strd	r2, r2, [r3, #56]	; 0x38
   29432:	e9c3 2214 	strd	r2, r2, [r3, #80]	; 0x50
   29436:	f8c0 4500 	str.w	r4, [r0, #1280]	; 0x500
   2943a:	64da      	str	r2, [r3, #76]	; 0x4c
   2943c:	2201      	movs	r2, #1
   2943e:	f883 2058 	strb.w	r2, [r3, #88]	; 0x58
   29442:	4b1d      	ldr	r3, [pc, #116]	; (294b8 <usb_init+0xcc>)
   29444:	2240      	movs	r2, #64	; 0x40
   29446:	f883 2327 	strb.w	r2, [r3, #807]	; 0x327
   2944a:	f891 2494 	ldrb.w	r2, [r1, #1172]	; 0x494
   2944e:	b992      	cbnz	r2, 29476 <usb_init+0x8a>
   29450:	f04f 4080 	mov.w	r0, #1073741824	; 0x40000000
   29454:	f8c0 2580 	str.w	r2, [r0, #1408]	; 0x580
   29458:	f8c0 2578 	str.w	r2, [r0, #1400]	; 0x578
   2945c:	681a      	ldr	r2, [r3, #0]
   2945e:	07d0      	lsls	r0, r2, #31
   29460:	d406      	bmi.n	29470 <usb_init+0x84>
   29462:	22e0      	movs	r2, #224	; 0xe0
   29464:	f883 2300 	strb.w	r2, [r3, #768]	; 0x300
   29468:	2201      	movs	r2, #1
   2946a:	f8c3 2180 	str.w	r2, [r3, #384]	; 0x180
   2946e:	601a      	str	r2, [r3, #0]
   29470:	2301      	movs	r3, #1
   29472:	f881 3494 	strb.w	r3, [r1, #1172]	; 0x494
   29476:	f04f 4380 	mov.w	r3, #1073741824	; 0x40000000
   2947a:	f44f 7260 	mov.w	r2, #896	; 0x380
   2947e:	480f      	ldr	r0, [pc, #60]	; (294bc <usb_init+0xd0>)
   29480:	f8c3 2308 	str.w	r2, [r3, #776]	; 0x308
   29484:	f8c1 0450 	str.w	r0, [r1, #1104]	; 0x450
   29488:	f8c3 2304 	str.w	r2, [r3, #772]	; 0x304
   2948c:	f8d3 4438 	ldr.w	r4, [r3, #1080]	; 0x438
   29490:	07e2      	lsls	r2, r4, #31
   29492:	d502      	bpl.n	2949a <usb_init+0xae>
   29494:	2000      	movs	r0, #0
   29496:	f7fe fb3d 	bl	27b14 <tusb_hal_nrf_power_event>
   2949a:	07a3      	lsls	r3, r4, #30
   2949c:	d504      	bpl.n	294a8 <usb_init+0xbc>
   2949e:	e8bd 4070 	ldmia.w	sp!, {r4, r5, r6, lr}
   294a2:	2002      	movs	r0, #2
   294a4:	f7fe bb36 	b.w	27b14 <tusb_hal_nrf_power_event>
   294a8:	bd70      	pop	{r4, r5, r6, pc}
   294aa:	bf00      	nop
   294ac:	20006004 	.word	0x20006004
   294b0:	200060a4 	.word	0x200060a4
   294b4:	50000300 	.word	0x50000300
   294b8:	e000e100 	.word	0xe000e100
   294bc:	00027d21 	.word	0x00027d21

000294c0 <USBD_IRQHandler>:
   294c0:	e92d 4ff0 	stmdb	sp!, {r4, r5, r6, r7, r8, r9, sl, fp, lr}
   294c4:	4bc6      	ldr	r3, [pc, #792]	; (297e0 <USBD_IRQHandler+0x320>)
   294c6:	4ac7      	ldr	r2, [pc, #796]	; (297e4 <USBD_IRQHandler+0x324>)
   294c8:	f8d3 1300 	ldr.w	r1, [r3, #768]	; 0x300
   294cc:	2300      	movs	r3, #0
   294ce:	b085      	sub	sp, #20
   294d0:	461c      	mov	r4, r3
   294d2:	2001      	movs	r0, #1
   294d4:	461d      	mov	r5, r3
   294d6:	fa21 f603 	lsr.w	r6, r1, r3
   294da:	07f6      	lsls	r6, r6, #31
   294dc:	d50b      	bpl.n	294f6 <USBD_IRQHandler+0x36>
   294de:	f852 6023 	ldr.w	r6, [r2, r3, lsl #2]
   294e2:	b146      	cbz	r6, 294f6 <USBD_IRQHandler+0x36>
   294e4:	fa00 f603 	lsl.w	r6, r0, r3
   294e8:	4334      	orrs	r4, r6
   294ea:	f842 5023 	str.w	r5, [r2, r3, lsl #2]
   294ee:	f3bf 8f6f 	isb	sy
   294f2:	f3bf 8f4f 	dsb	sy
   294f6:	3301      	adds	r3, #1
   294f8:	2b19      	cmp	r3, #25
   294fa:	d1ec      	bne.n	294d6 <USBD_IRQHandler+0x16>
   294fc:	07e5      	lsls	r5, r4, #31
   294fe:	d53e      	bpl.n	2957e <USBD_IRQHandler+0xbe>
   29500:	4bb7      	ldr	r3, [pc, #732]	; (297e0 <USBD_IRQHandler+0x320>)
   29502:	2201      	movs	r2, #1
   29504:	f8c3 2514 	str.w	r2, [r3, #1300]	; 0x514
   29508:	f8c3 2510 	str.w	r2, [r3, #1296]	; 0x510
   2950c:	2200      	movs	r2, #0
   2950e:	4615      	mov	r5, r2
   29510:	0093      	lsls	r3, r2, #2
   29512:	f103 4380 	add.w	r3, r3, #1073741824	; 0x40000000
   29516:	f503 331c 	add.w	r3, r3, #159744	; 0x27000
   2951a:	3201      	adds	r2, #1
   2951c:	2a08      	cmp	r2, #8
   2951e:	605d      	str	r5, [r3, #4]
   29520:	629d      	str	r5, [r3, #40]	; 0x28
   29522:	d1f5      	bne.n	29510 <USBD_IRQHandler+0x50>
   29524:	4bae      	ldr	r3, [pc, #696]	; (297e0 <USBD_IRQHandler+0x320>)
   29526:	4eb0      	ldr	r6, [pc, #704]	; (297e8 <USBD_IRQHandler+0x328>)
   29528:	625d      	str	r5, [r3, #36]	; 0x24
   2952a:	649d      	str	r5, [r3, #72]	; 0x48
   2952c:	f8c3 5158 	str.w	r5, [r3, #344]	; 0x158
   29530:	f8d3 2400 	ldr.w	r2, [r3, #1024]	; 0x400
   29534:	f8d3 1400 	ldr.w	r1, [r3, #1024]	; 0x400
   29538:	430a      	orrs	r2, r1
   2953a:	f8c3 2400 	str.w	r2, [r3, #1024]	; 0x400
   2953e:	f8d3 2300 	ldr.w	r2, [r3, #768]	; 0x300
   29542:	f8c3 2308 	str.w	r2, [r3, #776]	; 0x308
   29546:	4aa9      	ldr	r2, [pc, #676]	; (297ec <USBD_IRQHandler+0x32c>)
   29548:	f8c3 2304 	str.w	r2, [r3, #772]	; 0x304
   2954c:	2100      	movs	r1, #0
   2954e:	f44f 7292 	mov.w	r2, #292	; 0x124
   29552:	f106 005c 	add.w	r0, r6, #92	; 0x5c
   29556:	f001 fe23 	bl	2b1a0 <memset>
   2955a:	2340      	movs	r3, #64	; 0x40
   2955c:	f8a6 3074 	strh.w	r3, [r6, #116]	; 0x74
   29560:	f8a6 3064 	strh.w	r3, [r6, #100]	; 0x64
   29564:	2101      	movs	r1, #1
   29566:	f44f 7380 	mov.w	r3, #256	; 0x100
   2956a:	a801      	add	r0, sp, #4
   2956c:	e9cd 5501 	strd	r5, r5, [sp, #4]
   29570:	9503      	str	r5, [sp, #12]
   29572:	f8ad 3004 	strh.w	r3, [sp, #4]
   29576:	f88d 5008 	strb.w	r5, [sp, #8]
   2957a:	f7fe fa46 	bl	27a0a <dcd_event_handler>
   2957e:	0520      	lsls	r0, r4, #20
   29580:	d509      	bpl.n	29596 <USBD_IRQHandler+0xd6>
   29582:	4b97      	ldr	r3, [pc, #604]	; (297e0 <USBD_IRQHandler+0x320>)
   29584:	4a98      	ldr	r2, [pc, #608]	; (297e8 <USBD_IRQHandler+0x328>)
   29586:	f8d3 36a8 	ldr.w	r3, [r3, #1704]	; 0x6a8
   2958a:	b29b      	uxth	r3, r3
   2958c:	f8a2 3172 	strh.w	r3, [r2, #370]	; 0x172
   29590:	2301      	movs	r3, #1
   29592:	f882 3178 	strb.w	r3, [r2, #376]	; 0x178
   29596:	02a1      	lsls	r1, r4, #10
   29598:	d532      	bpl.n	29600 <USBD_IRQHandler+0x140>
   2959a:	4d91      	ldr	r5, [pc, #580]	; (297e0 <USBD_IRQHandler+0x320>)
   2959c:	f8d5 3514 	ldr.w	r3, [r5, #1300]	; 0x514
   295a0:	f413 7380 	ands.w	r3, r3, #256	; 0x100
   295a4:	d003      	beq.n	295ae <USBD_IRQHandler+0xee>
   295a6:	2008      	movs	r0, #8
   295a8:	f7fe fc80 	bl	27eac <xact_out_dma>
   295ac:	2301      	movs	r3, #1
   295ae:	f8d5 2510 	ldr.w	r2, [r5, #1296]	; 0x510
   295b2:	05d2      	lsls	r2, r2, #23
   295b4:	f140 816e 	bpl.w	29894 <USBD_IRQHandler+0x3d4>
   295b8:	4b8b      	ldr	r3, [pc, #556]	; (297e8 <USBD_IRQHandler+0x328>)
   295ba:	f893 2178 	ldrb.w	r2, [r3, #376]	; 0x178
   295be:	b19a      	cbz	r2, 295e8 <USBD_IRQHandler+0x128>
   295c0:	2200      	movs	r2, #0
   295c2:	f883 2178 	strb.w	r2, [r3, #376]	; 0x178
   295c6:	f8b3 3172 	ldrh.w	r3, [r3, #370]	; 0x172
   295ca:	b29b      	uxth	r3, r3
   295cc:	e9cd 2201 	strd	r2, r2, [sp, #4]
   295d0:	9303      	str	r3, [sp, #12]
   295d2:	f44f 62e0 	mov.w	r2, #1792	; 0x700
   295d6:	2388      	movs	r3, #136	; 0x88
   295d8:	2101      	movs	r1, #1
   295da:	a801      	add	r0, sp, #4
   295dc:	f8ad 2004 	strh.w	r2, [sp, #4]
   295e0:	f8ad 3008 	strh.w	r3, [sp, #8]
   295e4:	f7fe fa11 	bl	27a0a <dcd_event_handler>
   295e8:	2300      	movs	r3, #0
   295ea:	e9cd 3301 	strd	r3, r3, [sp, #4]
   295ee:	9303      	str	r3, [sp, #12]
   295f0:	2101      	movs	r1, #1
   295f2:	f44f 7340 	mov.w	r3, #768	; 0x300
   295f6:	a801      	add	r0, sp, #4
   295f8:	f8ad 3004 	strh.w	r3, [sp, #4]
   295fc:	f7fe fa05 	bl	27a0a <dcd_event_handler>
   29600:	0263      	lsls	r3, r4, #9
   29602:	d536      	bpl.n	29672 <USBD_IRQHandler+0x1b2>
   29604:	4b76      	ldr	r3, [pc, #472]	; (297e0 <USBD_IRQHandler+0x320>)
   29606:	f8d3 5400 	ldr.w	r5, [r3, #1024]	; 0x400
   2960a:	f405 62e0 	and.w	r2, r5, #1792	; 0x700
   2960e:	05ef      	lsls	r7, r5, #23
   29610:	f8c3 2400 	str.w	r2, [r3, #1024]	; 0x400
   29614:	d50d      	bpl.n	29632 <USBD_IRQHandler+0x172>
   29616:	2101      	movs	r1, #1
   29618:	f8c3 152c 	str.w	r1, [r3, #1324]	; 0x52c
   2961c:	2300      	movs	r3, #0
   2961e:	e9cd 3301 	strd	r3, r3, [sp, #4]
   29622:	9303      	str	r3, [sp, #12]
   29624:	a801      	add	r0, sp, #4
   29626:	f44f 6380 	mov.w	r3, #1024	; 0x400
   2962a:	f8ad 3004 	strh.w	r3, [sp, #4]
   2962e:	f7fe f9ec 	bl	27a0a <dcd_event_handler>
   29632:	056e      	lsls	r6, r5, #21
   29634:	d50f      	bpl.n	29656 <USBD_IRQHandler+0x196>
   29636:	4b6a      	ldr	r3, [pc, #424]	; (297e0 <USBD_IRQHandler+0x320>)
   29638:	2201      	movs	r2, #1
   2963a:	f8c3 2508 	str.w	r2, [r3, #1288]	; 0x508
   2963e:	659a      	str	r2, [r3, #88]	; 0x58
   29640:	f8d3 2300 	ldr.w	r2, [r3, #768]	; 0x300
   29644:	f412 1200 	ands.w	r2, r2, #2097152	; 0x200000
   29648:	bf08      	it	eq
   2964a:	f8c3 2154 	streq.w	r2, [r3, #340]	; 0x154
   2964e:	f44f 1200 	mov.w	r2, #2097152	; 0x200000
   29652:	f8c3 2304 	str.w	r2, [r3, #772]	; 0x304
   29656:	05a8      	lsls	r0, r5, #22
   29658:	d50b      	bpl.n	29672 <USBD_IRQHandler+0x1b2>
   2965a:	2300      	movs	r3, #0
   2965c:	e9cd 3301 	strd	r3, r3, [sp, #4]
   29660:	9303      	str	r3, [sp, #12]
   29662:	2101      	movs	r1, #1
   29664:	f44f 63a0 	mov.w	r3, #1280	; 0x500
   29668:	a801      	add	r0, sp, #4
   2966a:	f8ad 3004 	strh.w	r3, [sp, #4]
   2966e:	f7fe f9cc 	bl	27a0a <dcd_event_handler>
   29672:	0221      	lsls	r1, r4, #8
   29674:	d53a      	bpl.n	296ec <USBD_IRQHandler+0x22c>
   29676:	4b5a      	ldr	r3, [pc, #360]	; (297e0 <USBD_IRQHandler+0x320>)
   29678:	f8d3 c480 	ldr.w	ip, [r3, #1152]	; 0x480
   2967c:	f8d3 2484 	ldr.w	r2, [r3, #1156]	; 0x484
   29680:	f8d3 7488 	ldr.w	r7, [r3, #1160]	; 0x488
   29684:	f8d3 648c 	ldr.w	r6, [r3, #1164]	; 0x48c
   29688:	f8d3 5490 	ldr.w	r5, [r3, #1168]	; 0x490
   2968c:	f8d3 0494 	ldr.w	r0, [r3, #1172]	; 0x494
   29690:	f8d3 1498 	ldr.w	r1, [r3, #1176]	; 0x498
   29694:	f8d3 349c 	ldr.w	r3, [r3, #1180]	; 0x49c
   29698:	f01c 0f7f 	tst.w	ip, #127	; 0x7f
   2969c:	fa5f fe8c 	uxtb.w	lr, ip
   296a0:	b2d2      	uxtb	r2, r2
   296a2:	b2ff      	uxtb	r7, r7
   296a4:	b2f6      	uxtb	r6, r6
   296a6:	b2ed      	uxtb	r5, r5
   296a8:	b2c0      	uxtb	r0, r0
   296aa:	b2c9      	uxtb	r1, r1
   296ac:	b2db      	uxtb	r3, r3
   296ae:	d101      	bne.n	296b4 <USBD_IRQHandler+0x1f4>
   296b0:	2a05      	cmp	r2, #5
   296b2:	d01b      	beq.n	296ec <USBD_IRQHandler+0x22c>
   296b4:	f04f 0c00 	mov.w	ip, #0
   296b8:	f8ad c006 	strh.w	ip, [sp, #6]
   296bc:	f88d 000d 	strb.w	r0, [sp, #13]
   296c0:	f44f 6cc0 	mov.w	ip, #1536	; 0x600
   296c4:	f88d 100e 	strb.w	r1, [sp, #14]
   296c8:	a801      	add	r0, sp, #4
   296ca:	2101      	movs	r1, #1
   296cc:	f8ad c004 	strh.w	ip, [sp, #4]
   296d0:	f88d e008 	strb.w	lr, [sp, #8]
   296d4:	f88d 2009 	strb.w	r2, [sp, #9]
   296d8:	f88d 700a 	strb.w	r7, [sp, #10]
   296dc:	f88d 600b 	strb.w	r6, [sp, #11]
   296e0:	f88d 500c 	strb.w	r5, [sp, #12]
   296e4:	f88d 300f 	strb.w	r3, [sp, #15]
   296e8:	f7fe f98f 	bl	27a0a <dcd_event_handler>
   296ec:	4b40      	ldr	r3, [pc, #256]	; (297f0 <USBD_IRQHandler+0x330>)
   296ee:	4023      	ands	r3, r4
   296f0:	b173      	cbz	r3, 29710 <USBD_IRQHandler+0x250>
   296f2:	f3bf 8f5b 	dmb	ish
   296f6:	4b3c      	ldr	r3, [pc, #240]	; (297e8 <USBD_IRQHandler+0x328>)
   296f8:	f893 217c 	ldrb.w	r2, [r3, #380]	; 0x17c
   296fc:	f3bf 8f5b 	dmb	ish
   29700:	2a00      	cmp	r2, #0
   29702:	f040 80cf 	bne.w	298a4 <USBD_IRQHandler+0x3e4>
   29706:	4b3b      	ldr	r3, [pc, #236]	; (297f4 <USBD_IRQHandler+0x334>)
   29708:	681b      	ldr	r3, [r3, #0]
   2970a:	07da      	lsls	r2, r3, #31
   2970c:	d500      	bpl.n	29710 <USBD_IRQHandler+0x250>
   2970e:	be00      	bkpt	0x0000
   29710:	4f39      	ldr	r7, [pc, #228]	; (297f8 <USBD_IRQHandler+0x338>)
   29712:	f8df 90ec 	ldr.w	r9, [pc, #236]	; 29800 <USBD_IRQHandler+0x340>
   29716:	463e      	mov	r6, r7
   29718:	2500      	movs	r5, #0
   2971a:	f1a7 085c 	sub.w	r8, r7, #92	; 0x5c
   2971e:	f105 030c 	add.w	r3, r5, #12
   29722:	fa24 f303 	lsr.w	r3, r4, r3
   29726:	07db      	lsls	r3, r3, #31
   29728:	b2e9      	uxtb	r1, r5
   2972a:	d529      	bpl.n	29780 <USBD_IRQHandler+0x2c0>
   2972c:	2314      	movs	r3, #20
   2972e:	436b      	muls	r3, r5
   29730:	f103 4380 	add.w	r3, r3, #1073741824	; 0x40000000
   29734:	f503 331c 	add.w	r3, r3, #159744	; 0x27000
   29738:	6832      	ldr	r2, [r6, #0]
   2973a:	f8d3 3708 	ldr.w	r3, [r3, #1800]	; 0x708
   2973e:	eb08 1045 	add.w	r0, r8, r5, lsl #5
   29742:	fa12 f283 	uxtah	r2, r2, r3
   29746:	6032      	str	r2, [r6, #0]
   29748:	f8b0 e062 	ldrh.w	lr, [r0, #98]	; 0x62
   2974c:	fa1f fc83 	uxth.w	ip, r3
   29750:	4473      	add	r3, lr
   29752:	b29b      	uxth	r3, r3
   29754:	2d08      	cmp	r5, #8
   29756:	ea4f 1245 	mov.w	r2, r5, lsl #5
   2975a:	f8a0 3062 	strh.w	r3, [r0, #98]	; 0x62
   2975e:	f000 80a9 	beq.w	298b4 <USBD_IRQHandler+0x3f4>
   29762:	8933      	ldrh	r3, [r6, #8]
   29764:	4563      	cmp	r3, ip
   29766:	f040 80a5 	bne.w	298b4 <USBD_IRQHandler+0x3f4>
   2976a:	f8b0 3062 	ldrh.w	r3, [r0, #98]	; 0x62
   2976e:	88b0      	ldrh	r0, [r6, #4]
   29770:	b29b      	uxth	r3, r3
   29772:	4298      	cmp	r0, r3
   29774:	f240 809e 	bls.w	298b4 <USBD_IRQHandler+0x3f4>
   29778:	b911      	cbnz	r1, 29780 <USBD_IRQHandler+0x2c0>
   2977a:	4648      	mov	r0, r9
   2977c:	f7fe fc28 	bl	27fd0 <edpt_dma_start>
   29780:	3501      	adds	r5, #1
   29782:	2d09      	cmp	r5, #9
   29784:	f106 0620 	add.w	r6, r6, #32
   29788:	d1c9      	bne.n	2971e <USBD_IRQHandler+0x25e>
   2978a:	4b1c      	ldr	r3, [pc, #112]	; (297fc <USBD_IRQHandler+0x33c>)
   2978c:	4023      	ands	r3, r4
   2978e:	2b00      	cmp	r3, #0
   29790:	f000 809a 	beq.w	298c8 <USBD_IRQHandler+0x408>
   29794:	4b12      	ldr	r3, [pc, #72]	; (297e0 <USBD_IRQHandler+0x320>)
   29796:	f8d3 646c 	ldr.w	r6, [r3, #1132]	; 0x46c
   2979a:	f8c3 646c 	str.w	r6, [r3, #1132]	; 0x46c
   2979e:	f3bf 8f6f 	isb	sy
   297a2:	f3bf 8f4f 	dsb	sy
   297a6:	f414 6480 	ands.w	r4, r4, #1024	; 0x400
   297aa:	d008      	beq.n	297be <USBD_IRQHandler+0x2fe>
   297ac:	f8d3 4480 	ldr.w	r4, [r3, #1152]	; 0x480
   297b0:	f8d3 3480 	ldr.w	r3, [r3, #1152]	; 0x480
   297b4:	0619      	lsls	r1, r3, #24
   297b6:	f3c4 14c0 	ubfx	r4, r4, #7, #1
   297ba:	f140 80a1 	bpl.w	29900 <USBD_IRQHandler+0x440>
   297be:	f04f 0800 	mov.w	r8, #0
   297c2:	f8df b024 	ldr.w	fp, [pc, #36]	; 297e8 <USBD_IRQHandler+0x328>
   297c6:	46b9      	mov	r9, r7
   297c8:	2500      	movs	r5, #0
   297ca:	f04f 0a14 	mov.w	sl, #20
   297ce:	fa26 f305 	lsr.w	r3, r6, r5
   297d2:	07da      	lsls	r2, r3, #31
   297d4:	b2e8      	uxtb	r0, r5
   297d6:	d415      	bmi.n	29804 <USBD_IRQHandler+0x344>
   297d8:	bb9d      	cbnz	r5, 29842 <USBD_IRQHandler+0x382>
   297da:	b394      	cbz	r4, 29842 <USBD_IRQHandler+0x382>
   297dc:	e012      	b.n	29804 <USBD_IRQHandler+0x344>
   297de:	bf00      	nop
   297e0:	40027000 	.word	0x40027000
   297e4:	40027100 	.word	0x40027100
   297e8:	200060a4 	.word	0x200060a4
   297ec:	01c01405 	.word	0x01c01405
   297f0:	001ffbfc 	.word	0x001ffbfc
   297f4:	e000edf0 	.word	0xe000edf0
   297f8:	20006100 	.word	0x20006100
   297fc:	01000400 	.word	0x01000400
   29800:	4002704c 	.word	0x4002704c
   29804:	4b4d      	ldr	r3, [pc, #308]	; (2993c <USBD_IRQHandler+0x47c>)
   29806:	f8d9 1010 	ldr.w	r1, [r9, #16]
   2980a:	fb0a 3305 	mla	r3, sl, r5, r3
   2980e:	f8d3 3608 	ldr.w	r3, [r3, #1544]	; 0x608
   29812:	fa51 f183 	uxtab	r1, r1, r3
   29816:	f8c9 1010 	str.w	r1, [r9, #16]
   2981a:	eb0b 1145 	add.w	r1, fp, r5, lsl #5
   2981e:	f8b1 c072 	ldrh.w	ip, [r1, #114]	; 0x72
   29822:	fa1f fc8c 	uxth.w	ip, ip
   29826:	fa5c f383 	uxtab	r3, ip, r3
   2982a:	b29b      	uxth	r3, r3
   2982c:	f8a1 3072 	strh.w	r3, [r1, #114]	; 0x72
   29830:	f8b1 3072 	ldrh.w	r3, [r1, #114]	; 0x72
   29834:	f8b9 c014 	ldrh.w	ip, [r9, #20]
   29838:	b29b      	uxth	r3, r3
   2983a:	459c      	cmp	ip, r3
   2983c:	d963      	bls.n	29906 <USBD_IRQHandler+0x446>
   2983e:	f7fe fbef 	bl	28020 <xact_in_dma>
   29842:	3501      	adds	r5, #1
   29844:	2d08      	cmp	r5, #8
   29846:	f109 0920 	add.w	r9, r9, #32
   2984a:	d1c0      	bne.n	297ce <USBD_IRQHandler+0x30e>
   2984c:	4d3c      	ldr	r5, [pc, #240]	; (29940 <USBD_IRQHandler+0x480>)
   2984e:	2400      	movs	r4, #0
   29850:	f04f 0901 	mov.w	r9, #1
   29854:	f104 0310 	add.w	r3, r4, #16
   29858:	fa26 f303 	lsr.w	r3, r6, r3
   2985c:	07db      	lsls	r3, r3, #31
   2985e:	b2e0      	uxtb	r0, r4
   29860:	d403      	bmi.n	2986a <USBD_IRQHandler+0x3aa>
   29862:	b98c      	cbnz	r4, 29888 <USBD_IRQHandler+0x3c8>
   29864:	f1b8 0f00 	cmp.w	r8, #0
   29868:	d00e      	beq.n	29888 <USBD_IRQHandler+0x3c8>
   2986a:	eb05 1244 	add.w	r2, r5, r4, lsl #5
   2986e:	0163      	lsls	r3, r4, #5
   29870:	f892 1067 	ldrb.w	r1, [r2, #103]	; 0x67
   29874:	2900      	cmp	r1, #0
   29876:	d05c      	beq.n	29932 <USBD_IRQHandler+0x472>
   29878:	f8b2 2062 	ldrh.w	r2, [r2, #98]	; 0x62
   2987c:	88b9      	ldrh	r1, [r7, #4]
   2987e:	b292      	uxth	r2, r2
   29880:	4291      	cmp	r1, r2
   29882:	d956      	bls.n	29932 <USBD_IRQHandler+0x472>
   29884:	f7fe fb12 	bl	27eac <xact_out_dma>
   29888:	3401      	adds	r4, #1
   2988a:	2c08      	cmp	r4, #8
   2988c:	f107 0720 	add.w	r7, r7, #32
   29890:	d1e0      	bne.n	29854 <USBD_IRQHandler+0x394>
   29892:	e019      	b.n	298c8 <USBD_IRQHandler+0x408>
   29894:	2b00      	cmp	r3, #0
   29896:	f47f aea7 	bne.w	295e8 <USBD_IRQHandler+0x128>
   2989a:	f44f 1300 	mov.w	r3, #2097152	; 0x200000
   2989e:	f8c5 3308 	str.w	r3, [r5, #776]	; 0x308
   298a2:	e6a1      	b.n	295e8 <USBD_IRQHandler+0x128>
   298a4:	2200      	movs	r2, #0
   298a6:	f3bf 8f5b 	dmb	ish
   298aa:	f883 217c 	strb.w	r2, [r3, #380]	; 0x17c
   298ae:	f3bf 8f5b 	dmb	ish
   298b2:	e72d      	b.n	29710 <USBD_IRQHandler+0x250>
   298b4:	eb08 0302 	add.w	r3, r8, r2
   298b8:	f893 2067 	ldrb.w	r2, [r3, #103]	; 0x67
   298bc:	b93a      	cbnz	r2, 298ce <USBD_IRQHandler+0x40e>
   298be:	4b21      	ldr	r3, [pc, #132]	; (29944 <USBD_IRQHandler+0x484>)
   298c0:	681b      	ldr	r3, [r3, #0]
   298c2:	07d8      	lsls	r0, r3, #31
   298c4:	d500      	bpl.n	298c8 <USBD_IRQHandler+0x408>
   298c6:	be00      	bkpt	0x0000
   298c8:	b005      	add	sp, #20
   298ca:	e8bd 8ff0 	ldmia.w	sp!, {r4, r5, r6, r7, r8, r9, sl, fp, pc}
   298ce:	f8b3 2062 	ldrh.w	r2, [r3, #98]	; 0x62
   298d2:	80b2      	strh	r2, [r6, #4]
   298d4:	2200      	movs	r2, #0
   298d6:	f883 2067 	strb.w	r2, [r3, #103]	; 0x67
   298da:	f8b3 3062 	ldrh.w	r3, [r3, #98]	; 0x62
   298de:	f44f 60e0 	mov.w	r0, #1792	; 0x700
   298e2:	e9cd 2201 	strd	r2, r2, [sp, #4]
   298e6:	b29b      	uxth	r3, r3
   298e8:	f8ad 0004 	strh.w	r0, [sp, #4]
   298ec:	f88d 1008 	strb.w	r1, [sp, #8]
   298f0:	a801      	add	r0, sp, #4
   298f2:	2101      	movs	r1, #1
   298f4:	9303      	str	r3, [sp, #12]
   298f6:	f88d 2009 	strb.w	r2, [sp, #9]
   298fa:	f7fe f886 	bl	27a0a <dcd_event_handler>
   298fe:	e73f      	b.n	29780 <USBD_IRQHandler+0x2c0>
   29900:	f04f 0801 	mov.w	r8, #1
   29904:	e75d      	b.n	297c2 <USBD_IRQHandler+0x302>
   29906:	f8b1 1072 	ldrh.w	r1, [r1, #114]	; 0x72
   2990a:	2300      	movs	r3, #0
   2990c:	b289      	uxth	r1, r1
   2990e:	f060 007f 	orn	r0, r0, #127	; 0x7f
   29912:	e9cd 3301 	strd	r3, r3, [sp, #4]
   29916:	f44f 6ce0 	mov.w	ip, #1792	; 0x700
   2991a:	f88d 0008 	strb.w	r0, [sp, #8]
   2991e:	9103      	str	r1, [sp, #12]
   29920:	a801      	add	r0, sp, #4
   29922:	2101      	movs	r1, #1
   29924:	f8ad c004 	strh.w	ip, [sp, #4]
   29928:	f88d 3009 	strb.w	r3, [sp, #9]
   2992c:	f7fe f86d 	bl	27a0a <dcd_event_handler>
   29930:	e787      	b.n	29842 <USBD_IRQHandler+0x382>
   29932:	442b      	add	r3, r5
   29934:	f883 9066 	strb.w	r9, [r3, #102]	; 0x66
   29938:	e7a6      	b.n	29888 <USBD_IRQHandler+0x3c8>
   2993a:	bf00      	nop
   2993c:	40027000 	.word	0x40027000
   29940:	200060a4 	.word	0x200060a4
   29944:	e000edf0 	.word	0xe000edf0

00029948 <await_reply>:
   29948:	b4f0      	push	{r4, r5, r6, r7}
   2994a:	4605      	mov	r5, r0
   2994c:	6a84      	ldr	r4, [r0, #40]	; 0x28
   2994e:	b14c      	cbz	r4, 29964 <await_reply+0x1c>
   29950:	2200      	movs	r2, #0
   29952:	e000      	b.n	29956 <await_reply+0xe>
   29954:	461c      	mov	r4, r3
   29956:	6b23      	ldr	r3, [r4, #48]	; 0x30
   29958:	2b02      	cmp	r3, #2
   2995a:	d009      	beq.n	29970 <await_reply+0x28>
   2995c:	6ba3      	ldr	r3, [r4, #56]	; 0x38
   2995e:	4622      	mov	r2, r4
   29960:	2b00      	cmp	r3, #0
   29962:	d1f7      	bne.n	29954 <await_reply+0xc>
   29964:	2303      	movs	r3, #3
   29966:	616b      	str	r3, [r5, #20]
   29968:	2302      	movs	r3, #2
   2996a:	632b      	str	r3, [r5, #48]	; 0x30
   2996c:	6369      	str	r1, [r5, #52]	; 0x34
   2996e:	e035      	b.n	299dc <await_reply+0x94>
   29970:	2a00      	cmp	r2, #0
   29972:	d035      	beq.n	299e0 <await_reply+0x98>
   29974:	6ba3      	ldr	r3, [r4, #56]	; 0x38
   29976:	6393      	str	r3, [r2, #56]	; 0x38
   29978:	6b6e      	ldr	r6, [r5, #52]	; 0x34
   2997a:	b13e      	cbz	r6, 2998c <await_reply+0x44>
   2997c:	6827      	ldr	r7, [r4, #0]
   2997e:	b111      	cbz	r1, 29986 <await_reply+0x3e>
   29980:	c90f      	ldmia	r1, {r0, r1, r2, r3}
   29982:	e886 000f 	stmia.w	r6, {r0, r1, r2, r3}
   29986:	8077      	strh	r7, [r6, #2]
   29988:	2302      	movs	r3, #2
   2998a:	8033      	strh	r3, [r6, #0]
   2998c:	6a6b      	ldr	r3, [r5, #36]	; 0x24
   2998e:	2b03      	cmp	r3, #3
   29990:	d010      	beq.n	299b4 <await_reply+0x6c>
   29992:	2201      	movs	r2, #1
   29994:	616a      	str	r2, [r5, #20]
   29996:	2200      	movs	r2, #0
   29998:	63aa      	str	r2, [r5, #56]	; 0x38
   2999a:	4a17      	ldr	r2, [pc, #92]	; (299f8 <await_reply+0xb0>)
   2999c:	f852 2033 	ldr.w	r2, [r2, r3, lsl #3]
   299a0:	b30a      	cbz	r2, 299e6 <await_reply+0x9e>
   299a2:	4a15      	ldr	r2, [pc, #84]	; (299f8 <await_reply+0xb0>)
   299a4:	eb02 02c3 	add.w	r2, r2, r3, lsl #3
   299a8:	6852      	ldr	r2, [r2, #4]
   299aa:	6395      	str	r5, [r2, #56]	; 0x38
   299ac:	4a12      	ldr	r2, [pc, #72]	; (299f8 <await_reply+0xb0>)
   299ae:	eb02 03c3 	add.w	r3, r2, r3, lsl #3
   299b2:	605d      	str	r5, [r3, #4]
   299b4:	6a63      	ldr	r3, [r4, #36]	; 0x24
   299b6:	2b03      	cmp	r3, #3
   299b8:	d010      	beq.n	299dc <await_reply+0x94>
   299ba:	2201      	movs	r2, #1
   299bc:	6162      	str	r2, [r4, #20]
   299be:	2200      	movs	r2, #0
   299c0:	63a2      	str	r2, [r4, #56]	; 0x38
   299c2:	4a0d      	ldr	r2, [pc, #52]	; (299f8 <await_reply+0xb0>)
   299c4:	f852 2033 	ldr.w	r2, [r2, r3, lsl #3]
   299c8:	b18a      	cbz	r2, 299ee <await_reply+0xa6>
   299ca:	4a0b      	ldr	r2, [pc, #44]	; (299f8 <await_reply+0xb0>)
   299cc:	eb02 02c3 	add.w	r2, r2, r3, lsl #3
   299d0:	6852      	ldr	r2, [r2, #4]
   299d2:	6394      	str	r4, [r2, #56]	; 0x38
   299d4:	4a08      	ldr	r2, [pc, #32]	; (299f8 <await_reply+0xb0>)
   299d6:	eb02 03c3 	add.w	r3, r2, r3, lsl #3
   299da:	605c      	str	r4, [r3, #4]
   299dc:	bcf0      	pop	{r4, r5, r6, r7}
   299de:	4770      	bx	lr
   299e0:	6ba3      	ldr	r3, [r4, #56]	; 0x38
   299e2:	62ab      	str	r3, [r5, #40]	; 0x28
   299e4:	e7c8      	b.n	29978 <await_reply+0x30>
   299e6:	4a04      	ldr	r2, [pc, #16]	; (299f8 <await_reply+0xb0>)
   299e8:	f842 5033 	str.w	r5, [r2, r3, lsl #3]
   299ec:	e7de      	b.n	299ac <await_reply+0x64>
   299ee:	4a02      	ldr	r2, [pc, #8]	; (299f8 <await_reply+0xb0>)
   299f0:	f842 4033 	str.w	r4, [r2, r3, lsl #3]
   299f4:	e7ee      	b.n	299d4 <await_reply+0x8c>
   299f6:	bf00      	nop
   299f8:	20006600 	.word	0x20006600

000299fc <exit>:
   299fc:	df04      	svc	4
   299fe:	4770      	bx	lr

00029a00 <kprintf_setup>:
   29a00:	f44f 637a 	mov.w	r3, #4000	; 0xfa0
   29a04:	bf00      	nop
   29a06:	bf00      	nop
   29a08:	bf00      	nop
   29a0a:	3b01      	subs	r3, #1
   29a0c:	d1fa      	bne.n	29a04 <kprintf_setup+0x4>
   29a0e:	4b11      	ldr	r3, [pc, #68]	; (29a54 <kprintf_setup+0x54>)
   29a10:	685b      	ldr	r3, [r3, #4]
   29a12:	f44f 6200 	mov.w	r2, #2048	; 0x800
   29a16:	619a      	str	r2, [r3, #24]
   29a18:	f44f 5180 	mov.w	r1, #4096	; 0x1000
   29a1c:	61d9      	str	r1, [r3, #28]
   29a1e:	609a      	str	r2, [r3, #8]
   29a20:	4b0d      	ldr	r3, [pc, #52]	; (29a58 <kprintf_setup+0x58>)
   29a22:	2200      	movs	r2, #0
   29a24:	f8c3 2500 	str.w	r2, [r3, #1280]	; 0x500
   29a28:	f501 111d 	add.w	r1, r1, #2572288	; 0x274000
   29a2c:	f8c3 1524 	str.w	r1, [r3, #1316]	; 0x524
   29a30:	f8c3 256c 	str.w	r2, [r3, #1388]	; 0x56c
   29a34:	212b      	movs	r1, #43	; 0x2b
   29a36:	f8c3 150c 	str.w	r1, [r3, #1292]	; 0x50c
   29a3a:	212c      	movs	r1, #44	; 0x2c
   29a3c:	f8c3 1514 	str.w	r1, [r3, #1300]	; 0x514
   29a40:	2104      	movs	r1, #4
   29a42:	f8c3 1500 	str.w	r1, [r3, #1280]	; 0x500
   29a46:	2101      	movs	r1, #1
   29a48:	6099      	str	r1, [r3, #8]
   29a4a:	6019      	str	r1, [r3, #0]
   29a4c:	f8c3 2108 	str.w	r2, [r3, #264]	; 0x108
   29a50:	4770      	bx	lr
   29a52:	bf00      	nop
   29a54:	0002b9dc 	.word	0x0002b9dc
   29a58:	40002000 	.word	0x40002000

00029a5c <kputc>:
   29a5c:	4b06      	ldr	r3, [pc, #24]	; (29a78 <kputc+0x1c>)
   29a5e:	f8c3 051c 	str.w	r0, [r3, #1308]	; 0x51c
   29a62:	461a      	mov	r2, r3
   29a64:	f8d2 311c 	ldr.w	r3, [r2, #284]	; 0x11c
   29a68:	2b00      	cmp	r3, #0
   29a6a:	d0fb      	beq.n	29a64 <kputc+0x8>
   29a6c:	4b02      	ldr	r3, [pc, #8]	; (29a78 <kputc+0x1c>)
   29a6e:	2200      	movs	r2, #0
   29a70:	f8c3 211c 	str.w	r2, [r3, #284]	; 0x11c
   29a74:	4770      	bx	lr
   29a76:	bf00      	nop
   29a78:	40002000 	.word	0x40002000

00029a7c <kprintf_internal>:
   29a7c:	b40f      	push	{r0, r1, r2, r3}
   29a7e:	b500      	push	{lr}
   29a80:	b083      	sub	sp, #12
   29a82:	aa04      	add	r2, sp, #16
   29a84:	f852 1b04 	ldr.w	r1, [r2], #4
   29a88:	9201      	str	r2, [sp, #4]
   29a8a:	4804      	ldr	r0, [pc, #16]	; (29a9c <kprintf_internal+0x20>)
   29a8c:	f001 faf5 	bl	2b07a <do_print>
   29a90:	b003      	add	sp, #12
   29a92:	f85d eb04 	ldr.w	lr, [sp], #4
   29a96:	b004      	add	sp, #16
   29a98:	4770      	bx	lr
   29a9a:	bf00      	nop
   29a9c:	00029a5d 	.word	0x00029a5d

00029aa0 <interrupt>:
   29aa0:	4b1c      	ldr	r3, [pc, #112]	; (29b14 <interrupt+0x74>)
   29aa2:	eb03 0380 	add.w	r3, r3, r0, lsl #2
   29aa6:	699b      	ldr	r3, [r3, #24]
   29aa8:	695a      	ldr	r2, [r3, #20]
   29aaa:	2a03      	cmp	r2, #3
   29aac:	d002      	beq.n	29ab4 <interrupt+0x14>
   29aae:	2201      	movs	r2, #1
   29ab0:	62da      	str	r2, [r3, #44]	; 0x2c
   29ab2:	4770      	bx	lr
   29ab4:	6b1a      	ldr	r2, [r3, #48]	; 0x30
   29ab6:	f1b2 3fff 	cmp.w	r2, #4294967295	; 0xffffffff
   29aba:	d001      	beq.n	29ac0 <interrupt+0x20>
   29abc:	2a01      	cmp	r2, #1
   29abe:	d1f6      	bne.n	29aae <interrupt+0xe>
   29ac0:	6b5a      	ldr	r2, [r3, #52]	; 0x34
   29ac2:	b122      	cbz	r2, 29ace <interrupt+0x2e>
   29ac4:	f64f 71ff 	movw	r1, #65535	; 0xffff
   29ac8:	8051      	strh	r1, [r2, #2]
   29aca:	2101      	movs	r1, #1
   29acc:	8011      	strh	r1, [r2, #0]
   29ace:	6a5a      	ldr	r2, [r3, #36]	; 0x24
   29ad0:	2a03      	cmp	r2, #3
   29ad2:	d010      	beq.n	29af6 <interrupt+0x56>
   29ad4:	2101      	movs	r1, #1
   29ad6:	6159      	str	r1, [r3, #20]
   29ad8:	2100      	movs	r1, #0
   29ada:	6399      	str	r1, [r3, #56]	; 0x38
   29adc:	490d      	ldr	r1, [pc, #52]	; (29b14 <interrupt+0x74>)
   29ade:	f851 1032 	ldr.w	r1, [r1, r2, lsl #3]
   29ae2:	b199      	cbz	r1, 29b0c <interrupt+0x6c>
   29ae4:	490b      	ldr	r1, [pc, #44]	; (29b14 <interrupt+0x74>)
   29ae6:	eb01 01c2 	add.w	r1, r1, r2, lsl #3
   29aea:	6849      	ldr	r1, [r1, #4]
   29aec:	638b      	str	r3, [r1, #56]	; 0x38
   29aee:	4909      	ldr	r1, [pc, #36]	; (29b14 <interrupt+0x74>)
   29af0:	eb01 02c2 	add.w	r2, r1, r2, lsl #3
   29af4:	6053      	str	r3, [r2, #4]
   29af6:	4b07      	ldr	r3, [pc, #28]	; (29b14 <interrupt+0x74>)
   29af8:	f8d3 3098 	ldr.w	r3, [r3, #152]	; 0x98
   29afc:	6a5b      	ldr	r3, [r3, #36]	; 0x24
   29afe:	2b00      	cmp	r3, #0
   29b00:	dd03      	ble.n	29b0a <interrupt+0x6a>
   29b02:	4b05      	ldr	r3, [pc, #20]	; (29b18 <interrupt+0x78>)
   29b04:	f04f 5280 	mov.w	r2, #268435456	; 0x10000000
   29b08:	605a      	str	r2, [r3, #4]
   29b0a:	4770      	bx	lr
   29b0c:	4901      	ldr	r1, [pc, #4]	; (29b14 <interrupt+0x74>)
   29b0e:	f841 3032 	str.w	r3, [r1, r2, lsl #3]
   29b12:	e7ec      	b.n	29aee <interrupt+0x4e>
   29b14:	20006600 	.word	0x20006600
   29b18:	e000ed00 	.word	0xe000ed00

00029b1c <cxt_switch>:
   29b1c:	4b1c      	ldr	r3, [pc, #112]	; (29b90 <cxt_switch+0x74>)
   29b1e:	f8d3 3098 	ldr.w	r3, [r3, #152]	; 0x98
   29b22:	6198      	str	r0, [r3, #24]
   29b24:	6a5a      	ldr	r2, [r3, #36]	; 0x24
   29b26:	2a03      	cmp	r2, #3
   29b28:	d010      	beq.n	29b4c <cxt_switch+0x30>
   29b2a:	2101      	movs	r1, #1
   29b2c:	6159      	str	r1, [r3, #20]
   29b2e:	2100      	movs	r1, #0
   29b30:	6399      	str	r1, [r3, #56]	; 0x38
   29b32:	4917      	ldr	r1, [pc, #92]	; (29b90 <cxt_switch+0x74>)
   29b34:	f851 1032 	ldr.w	r1, [r1, r2, lsl #3]
   29b38:	b1e1      	cbz	r1, 29b74 <cxt_switch+0x58>
   29b3a:	4915      	ldr	r1, [pc, #84]	; (29b90 <cxt_switch+0x74>)
   29b3c:	eb01 01c2 	add.w	r1, r1, r2, lsl #3
   29b40:	6849      	ldr	r1, [r1, #4]
   29b42:	638b      	str	r3, [r1, #56]	; 0x38
   29b44:	4912      	ldr	r1, [pc, #72]	; (29b90 <cxt_switch+0x74>)
   29b46:	eb01 02c2 	add.w	r2, r1, r2, lsl #3
   29b4a:	6053      	str	r3, [r2, #4]
   29b4c:	4b10      	ldr	r3, [pc, #64]	; (29b90 <cxt_switch+0x74>)
   29b4e:	681b      	ldr	r3, [r3, #0]
   29b50:	b9a3      	cbnz	r3, 29b7c <cxt_switch+0x60>
   29b52:	4b0f      	ldr	r3, [pc, #60]	; (29b90 <cxt_switch+0x74>)
   29b54:	689b      	ldr	r3, [r3, #8]
   29b56:	b9cb      	cbnz	r3, 29b8c <cxt_switch+0x70>
   29b58:	4b0d      	ldr	r3, [pc, #52]	; (29b90 <cxt_switch+0x74>)
   29b5a:	691b      	ldr	r3, [r3, #16]
   29b5c:	2102      	movs	r1, #2
   29b5e:	b973      	cbnz	r3, 29b7e <cxt_switch+0x62>
   29b60:	4b0b      	ldr	r3, [pc, #44]	; (29b90 <cxt_switch+0x74>)
   29b62:	f8d3 209c 	ldr.w	r2, [r3, #156]	; 0x9c
   29b66:	f8c3 2098 	str.w	r2, [r3, #152]	; 0x98
   29b6a:	4b09      	ldr	r3, [pc, #36]	; (29b90 <cxt_switch+0x74>)
   29b6c:	f8d3 3098 	ldr.w	r3, [r3, #152]	; 0x98
   29b70:	6998      	ldr	r0, [r3, #24]
   29b72:	4770      	bx	lr
   29b74:	4906      	ldr	r1, [pc, #24]	; (29b90 <cxt_switch+0x74>)
   29b76:	f841 3032 	str.w	r3, [r1, r2, lsl #3]
   29b7a:	e7e3      	b.n	29b44 <cxt_switch+0x28>
   29b7c:	2100      	movs	r1, #0
   29b7e:	4a04      	ldr	r2, [pc, #16]	; (29b90 <cxt_switch+0x74>)
   29b80:	f8c2 3098 	str.w	r3, [r2, #152]	; 0x98
   29b84:	6b9b      	ldr	r3, [r3, #56]	; 0x38
   29b86:	f842 3031 	str.w	r3, [r2, r1, lsl #3]
   29b8a:	e7ee      	b.n	29b6a <cxt_switch+0x4e>
   29b8c:	2101      	movs	r1, #1
   29b8e:	e7f6      	b.n	29b7e <cxt_switch+0x62>
   29b90:	20006600 	.word	0x20006600

00029b94 <yield>:
   29b94:	df00      	svc	0
   29b96:	4770      	bx	lr

00029b98 <send>:
   29b98:	df01      	svc	1
   29b9a:	4770      	bx	lr

00029b9c <receive>:
   29b9c:	df02      	svc	2
   29b9e:	4770      	bx	lr

00029ba0 <sendrec>:
   29ba0:	df03      	svc	3
   29ba2:	4770      	bx	lr

00029ba4 <dump>:
   29ba4:	df05      	svc	5
   29ba6:	4770      	bx	lr

00029ba8 <kprintf>:
   29ba8:	b40f      	push	{r0, r1, r2, r3}
   29baa:	b570      	push	{r4, r5, r6, lr}
   29bac:	b082      	sub	sp, #8
   29bae:	ac06      	add	r4, sp, #24
   29bb0:	f854 6b04 	ldr.w	r6, [r4], #4
   29bb4:	f3ef 8510 	mrs	r5, PRIMASK
   29bb8:	b672      	cpsid	i
   29bba:	f7ff ff21 	bl	29a00 <kprintf_setup>
   29bbe:	9401      	str	r4, [sp, #4]
   29bc0:	4622      	mov	r2, r4
   29bc2:	4631      	mov	r1, r6
   29bc4:	4804      	ldr	r0, [pc, #16]	; (29bd8 <kprintf+0x30>)
   29bc6:	f001 fa58 	bl	2b07a <do_print>
   29bca:	f385 8810 	msr	PRIMASK, r5
   29bce:	b002      	add	sp, #8
   29bd0:	e8bd 4070 	ldmia.w	sp!, {r4, r5, r6, lr}
   29bd4:	b004      	add	sp, #16
   29bd6:	4770      	bx	lr
   29bd8:	00029a5d 	.word	0x00029a5d

00029bdc <panic>:
   29bdc:	b40f      	push	{r0, r1, r2, r3}
   29bde:	b530      	push	{r4, r5, lr}
   29be0:	b083      	sub	sp, #12
   29be2:	ac06      	add	r4, sp, #24
   29be4:	f854 5b04 	ldr.w	r5, [r4], #4
   29be8:	b672      	cpsid	i
   29bea:	f7ff ff09 	bl	29a00 <kprintf_setup>
   29bee:	480d      	ldr	r0, [pc, #52]	; (29c24 <panic+0x48>)
   29bf0:	f7ff ff44 	bl	29a7c <kprintf_internal>
   29bf4:	9401      	str	r4, [sp, #4]
   29bf6:	4622      	mov	r2, r4
   29bf8:	4629      	mov	r1, r5
   29bfa:	480b      	ldr	r0, [pc, #44]	; (29c28 <panic+0x4c>)
   29bfc:	f001 fa3d 	bl	2b07a <do_print>
   29c00:	4b0a      	ldr	r3, [pc, #40]	; (29c2c <panic+0x50>)
   29c02:	f8d3 1098 	ldr.w	r1, [r3, #152]	; 0x98
   29c06:	b119      	cbz	r1, 29c10 <panic+0x34>
   29c08:	3104      	adds	r1, #4
   29c0a:	4809      	ldr	r0, [pc, #36]	; (29c30 <panic+0x54>)
   29c0c:	f7ff ff36 	bl	29a7c <kprintf_internal>
   29c10:	4808      	ldr	r0, [pc, #32]	; (29c34 <panic+0x58>)
   29c12:	f7ff ff33 	bl	29a7c <kprintf_internal>
   29c16:	f001 fb63 	bl	2b2e0 <spin>
   29c1a:	b003      	add	sp, #12
   29c1c:	e8bd 4030 	ldmia.w	sp!, {r4, r5, lr}
   29c20:	b004      	add	sp, #16
   29c22:	4770      	bx	lr
   29c24:	0002b658 	.word	0x0002b658
   29c28:	00029a5d 	.word	0x00029a5d
   29c2c:	20006600 	.word	0x20006600
   29c30:	0002b664 	.word	0x0002b664
   29c34:	0002b674 	.word	0x0002b674

00029c38 <connect>:
   29c38:	b510      	push	{r4, lr}
   29c3a:	1e04      	subs	r4, r0, #0
   29c3c:	db0a      	blt.n	29c54 <connect+0x1c>
   29c3e:	4b07      	ldr	r3, [pc, #28]	; (29c5c <connect+0x24>)
   29c40:	f8d3 2098 	ldr.w	r2, [r3, #152]	; 0x98
   29c44:	2100      	movs	r1, #0
   29c46:	6251      	str	r1, [r2, #36]	; 0x24
   29c48:	eb03 0384 	add.w	r3, r3, r4, lsl #2
   29c4c:	6812      	ldr	r2, [r2, #0]
   29c4e:	f8c3 20a0 	str.w	r2, [r3, #160]	; 0xa0
   29c52:	bd10      	pop	{r4, pc}
   29c54:	4802      	ldr	r0, [pc, #8]	; (29c60 <connect+0x28>)
   29c56:	f7ff ffc1 	bl	29bdc <panic>
   29c5a:	e7f0      	b.n	29c3e <connect+0x6>
   29c5c:	20006600 	.word	0x20006600
   29c60:	0002b678 	.word	0x0002b678

00029c64 <priority>:
   29c64:	b510      	push	{r4, lr}
   29c66:	4604      	mov	r4, r0
   29c68:	2802      	cmp	r0, #2
   29c6a:	d804      	bhi.n	29c76 <priority+0x12>
   29c6c:	4b04      	ldr	r3, [pc, #16]	; (29c80 <priority+0x1c>)
   29c6e:	f8d3 3098 	ldr.w	r3, [r3, #152]	; 0x98
   29c72:	625c      	str	r4, [r3, #36]	; 0x24
   29c74:	bd10      	pop	{r4, pc}
   29c76:	4601      	mov	r1, r0
   29c78:	4802      	ldr	r0, [pc, #8]	; (29c84 <priority+0x20>)
   29c7a:	f7ff ffaf 	bl	29bdc <panic>
   29c7e:	e7f5      	b.n	29c6c <priority+0x8>
   29c80:	20006600 	.word	0x20006600
   29c84:	0002b698 	.word	0x0002b698

00029c88 <default_handler>:
   29c88:	b510      	push	{r4, lr}
   29c8a:	4b0f      	ldr	r3, [pc, #60]	; (29cc8 <default_handler+0x40>)
   29c8c:	685c      	ldr	r4, [r3, #4]
   29c8e:	b2e4      	uxtb	r4, r4
   29c90:	3c10      	subs	r4, #16
   29c92:	d405      	bmi.n	29ca0 <default_handler+0x18>
   29c94:	4b0d      	ldr	r3, [pc, #52]	; (29ccc <default_handler+0x44>)
   29c96:	eb03 0384 	add.w	r3, r3, r4, lsl #2
   29c9a:	f8d3 00a0 	ldr.w	r0, [r3, #160]	; 0xa0
   29c9e:	b920      	cbnz	r0, 29caa <default_handler+0x22>
   29ca0:	4621      	mov	r1, r4
   29ca2:	480b      	ldr	r0, [pc, #44]	; (29cd0 <default_handler+0x48>)
   29ca4:	f7ff ff9a 	bl	29bdc <panic>
   29ca8:	2000      	movs	r0, #0
   29caa:	1163      	asrs	r3, r4, #5
   29cac:	f004 041f 	and.w	r4, r4, #31
   29cb0:	2201      	movs	r2, #1
   29cb2:	fa02 f404 	lsl.w	r4, r2, r4
   29cb6:	3360      	adds	r3, #96	; 0x60
   29cb8:	f04f 22e0 	mov.w	r2, #3758153728	; 0xe000e000
   29cbc:	f842 4023 	str.w	r4, [r2, r3, lsl #2]
   29cc0:	f7ff feee 	bl	29aa0 <interrupt>
   29cc4:	bd10      	pop	{r4, pc}
   29cc6:	bf00      	nop
   29cc8:	e000ed00 	.word	0xe000ed00
   29ccc:	20006600 	.word	0x20006600
   29cd0:	0002b6ac 	.word	0x0002b6ac

00029cd4 <hardfault_handler>:
   29cd4:	b508      	push	{r3, lr}
   29cd6:	4b05      	ldr	r3, [pc, #20]	; (29cec <hardfault_handler+0x18>)
   29cd8:	685b      	ldr	r3, [r3, #4]
   29cda:	b2db      	uxtb	r3, r3
   29cdc:	4a04      	ldr	r2, [pc, #16]	; (29cf0 <hardfault_handler+0x1c>)
   29cde:	f852 1023 	ldr.w	r1, [r2, r3, lsl #2]
   29ce2:	4804      	ldr	r0, [pc, #16]	; (29cf4 <hardfault_handler+0x20>)
   29ce4:	f7ff ff7a 	bl	29bdc <panic>
   29ce8:	bd08      	pop	{r3, pc}
   29cea:	bf00      	nop
   29cec:	e000ed00 	.word	0xe000ed00
   29cf0:	0002b8b8 	.word	0x0002b8b8
   29cf4:	0002b6c4 	.word	0x0002b6c4

00029cf8 <create_proc>:
   29cf8:	e92d 47f0 	stmdb	sp!, {r4, r5, r6, r7, r8, r9, sl, lr}
   29cfc:	4680      	mov	r8, r0
   29cfe:	460e      	mov	r6, r1
   29d00:	4b33      	ldr	r3, [pc, #204]	; (29dd0 <create_proc+0xd8>)
   29d02:	f8d3 31a0 	ldr.w	r3, [r3, #416]	; 0x1a0
   29d06:	2b1f      	cmp	r3, #31
   29d08:	d855      	bhi.n	29db6 <create_proc+0xbe>
   29d0a:	4b31      	ldr	r3, [pc, #196]	; (29dd0 <create_proc+0xd8>)
   29d0c:	f8d3 91a0 	ldr.w	r9, [r3, #416]	; 0x1a0
   29d10:	f109 0201 	add.w	r2, r9, #1
   29d14:	f8c3 21a0 	str.w	r2, [r3, #416]	; 0x1a0
   29d18:	4a2e      	ldr	r2, [pc, #184]	; (29dd4 <create_proc+0xdc>)
   29d1a:	6813      	ldr	r3, [r2, #0]
   29d1c:	6852      	ldr	r2, [r2, #4]
   29d1e:	1a9b      	subs	r3, r3, r2
   29d20:	2b3b      	cmp	r3, #59	; 0x3b
   29d22:	d94c      	bls.n	29dbe <create_proc+0xc6>
   29d24:	4a2b      	ldr	r2, [pc, #172]	; (29dd4 <create_proc+0xdc>)
   29d26:	6814      	ldr	r4, [r2, #0]
   29d28:	f1a4 073c 	sub.w	r7, r4, #60	; 0x3c
   29d2c:	6017      	str	r7, [r2, #0]
   29d2e:	4b28      	ldr	r3, [pc, #160]	; (29dd0 <create_proc+0xd8>)
   29d30:	eb03 0389 	add.w	r3, r3, r9, lsl #2
   29d34:	619f      	str	r7, [r3, #24]
   29d36:	6853      	ldr	r3, [r2, #4]
   29d38:	3307      	adds	r3, #7
   29d3a:	f023 0307 	bic.w	r3, r3, #7
   29d3e:	6053      	str	r3, [r2, #4]
   29d40:	1df5      	adds	r5, r6, #7
   29d42:	f025 0507 	bic.w	r5, r5, #7
   29d46:	1afb      	subs	r3, r7, r3
   29d48:	429d      	cmp	r5, r3
   29d4a:	dc3c      	bgt.n	29dc6 <create_proc+0xce>
   29d4c:	4b21      	ldr	r3, [pc, #132]	; (29dd4 <create_proc+0xdc>)
   29d4e:	f8d3 a004 	ldr.w	sl, [r3, #4]
   29d52:	4455      	add	r5, sl
   29d54:	605d      	str	r5, [r3, #4]
   29d56:	eb0a 0506 	add.w	r5, sl, r6
   29d5a:	4555      	cmp	r5, sl
   29d5c:	d905      	bls.n	29d6a <create_proc+0x72>
   29d5e:	4653      	mov	r3, sl
   29d60:	4a1d      	ldr	r2, [pc, #116]	; (29dd8 <create_proc+0xe0>)
   29d62:	f843 2b04 	str.w	r2, [r3], #4
   29d66:	429d      	cmp	r5, r3
   29d68:	d8fb      	bhi.n	29d62 <create_proc+0x6a>
   29d6a:	f844 9c3c 	str.w	r9, [r4, #-60]
   29d6e:	220f      	movs	r2, #15
   29d70:	4641      	mov	r1, r8
   29d72:	f1a4 0038 	sub.w	r0, r4, #56	; 0x38
   29d76:	f001 fb91 	bl	2b49c <strncpy>
   29d7a:	2300      	movs	r3, #0
   29d7c:	f804 3c29 	strb.w	r3, [r4, #-41]
   29d80:	f844 5c24 	str.w	r5, [r4, #-36]
   29d84:	f844 ac20 	str.w	sl, [r4, #-32]
   29d88:	f844 6c1c 	str.w	r6, [r4, #-28]
   29d8c:	2201      	movs	r2, #1
   29d8e:	f844 2c28 	str.w	r2, [r4, #-40]
   29d92:	2202      	movs	r2, #2
   29d94:	f844 2c18 	str.w	r2, [r4, #-24]
   29d98:	f844 3c14 	str.w	r3, [r4, #-20]
   29d9c:	f844 3c10 	str.w	r3, [r4, #-16]
   29da0:	f04f 32ff 	mov.w	r2, #4294967295	; 0xffffffff
   29da4:	f844 2c0c 	str.w	r2, [r4, #-12]
   29da8:	f844 3c08 	str.w	r3, [r4, #-8]
   29dac:	f844 3c04 	str.w	r3, [r4, #-4]
   29db0:	4638      	mov	r0, r7
   29db2:	e8bd 87f0 	ldmia.w	sp!, {r4, r5, r6, r7, r8, r9, sl, pc}
   29db6:	4809      	ldr	r0, [pc, #36]	; (29ddc <create_proc+0xe4>)
   29db8:	f7ff ff10 	bl	29bdc <panic>
   29dbc:	e7a5      	b.n	29d0a <create_proc+0x12>
   29dbe:	4808      	ldr	r0, [pc, #32]	; (29de0 <create_proc+0xe8>)
   29dc0:	f7ff ff0c 	bl	29bdc <panic>
   29dc4:	e7ae      	b.n	29d24 <create_proc+0x2c>
   29dc6:	4807      	ldr	r0, [pc, #28]	; (29de4 <create_proc+0xec>)
   29dc8:	f7ff ff08 	bl	29bdc <panic>
   29dcc:	e7be      	b.n	29d4c <create_proc+0x54>
   29dce:	bf00      	nop
   29dd0:	20006600 	.word	0x20006600
   29dd4:	20006028 	.word	0x20006028
   29dd8:	deadbeef 	.word	0xdeadbeef
   29ddc:	0002b6d8 	.word	0x0002b6d8
   29de0:	0002b6ec 	.word	0x0002b6ec
   29de4:	0002b704 	.word	0x0002b704

00029de8 <__start>:
   29de8:	b508      	push	{r3, lr}
   29dea:	2180      	movs	r1, #128	; 0x80
   29dec:	480a      	ldr	r0, [pc, #40]	; (29e18 <__start+0x30>)
   29dee:	f7ff ff83 	bl	29cf8 <create_proc>
   29df2:	4c0a      	ldr	r4, [pc, #40]	; (29e1c <__start+0x34>)
   29df4:	f8c4 009c 	str.w	r0, [r4, #156]	; 0x9c
   29df8:	2205      	movs	r2, #5
   29dfa:	6142      	str	r2, [r0, #20]
   29dfc:	2203      	movs	r2, #3
   29dfe:	6242      	str	r2, [r0, #36]	; 0x24
   29e00:	f7fd fa52 	bl	272a8 <init>
   29e04:	f8d4 309c 	ldr.w	r3, [r4, #156]	; 0x9c
   29e08:	f8c4 3098 	str.w	r3, [r4, #152]	; 0x98
   29e0c:	6998      	ldr	r0, [r3, #24]
   29e0e:	f000 fb1b 	bl	2a448 <set_stack>
   29e12:	f7ff febf 	bl	29b94 <yield>
   29e16:	e7fe      	b.n	29e16 <__start+0x2e>
   29e18:	0002b720 	.word	0x0002b720
   29e1c:	20006600 	.word	0x20006600

00029e20 <start>:
   29e20:	e92d 41f0 	stmdb	sp!, {r4, r5, r6, r7, r8, lr}
   29e24:	460e      	mov	r6, r1
   29e26:	4617      	mov	r7, r2
   29e28:	1dd9      	adds	r1, r3, #7
   29e2a:	f021 0107 	bic.w	r1, r1, #7
   29e2e:	f7ff ff63 	bl	29cf8 <create_proc>
   29e32:	4604      	mov	r4, r0
   29e34:	4b1e      	ldr	r3, [pc, #120]	; (29eb0 <start+0x90>)
   29e36:	f8d3 3098 	ldr.w	r3, [r3, #152]	; 0x98
   29e3a:	b113      	cbz	r3, 29e42 <start+0x22>
   29e3c:	481d      	ldr	r0, [pc, #116]	; (29eb4 <start+0x94>)
   29e3e:	f7ff fecd 	bl	29bdc <panic>
   29e42:	69a5      	ldr	r5, [r4, #24]
   29e44:	f1a5 0844 	sub.w	r8, r5, #68	; 0x44
   29e48:	2244      	movs	r2, #68	; 0x44
   29e4a:	2100      	movs	r1, #0
   29e4c:	4640      	mov	r0, r8
   29e4e:	f001 f9a7 	bl	2b1a0 <memset>
   29e52:	f04f 7380 	mov.w	r3, #16777216	; 0x1000000
   29e56:	f845 3c04 	str.w	r3, [r5, #-4]
   29e5a:	f026 0601 	bic.w	r6, r6, #1
   29e5e:	f845 6c08 	str.w	r6, [r5, #-8]
   29e62:	4b15      	ldr	r3, [pc, #84]	; (29eb8 <start+0x98>)
   29e64:	f845 3c0c 	str.w	r3, [r5, #-12]
   29e68:	f845 7c20 	str.w	r7, [r5, #-32]
   29e6c:	f06f 0302 	mvn.w	r3, #2
   29e70:	f845 3c44 	str.w	r3, [r5, #-68]
   29e74:	f8c4 8018 	str.w	r8, [r4, #24]
   29e78:	6a63      	ldr	r3, [r4, #36]	; 0x24
   29e7a:	2b03      	cmp	r3, #3
   29e7c:	d010      	beq.n	29ea0 <start+0x80>
   29e7e:	2201      	movs	r2, #1
   29e80:	6162      	str	r2, [r4, #20]
   29e82:	2200      	movs	r2, #0
   29e84:	63a2      	str	r2, [r4, #56]	; 0x38
   29e86:	4a0a      	ldr	r2, [pc, #40]	; (29eb0 <start+0x90>)
   29e88:	f852 2033 	ldr.w	r2, [r2, r3, lsl #3]
   29e8c:	b15a      	cbz	r2, 29ea6 <start+0x86>
   29e8e:	4a08      	ldr	r2, [pc, #32]	; (29eb0 <start+0x90>)
   29e90:	eb02 02c3 	add.w	r2, r2, r3, lsl #3
   29e94:	6852      	ldr	r2, [r2, #4]
   29e96:	6394      	str	r4, [r2, #56]	; 0x38
   29e98:	4a05      	ldr	r2, [pc, #20]	; (29eb0 <start+0x90>)
   29e9a:	eb02 03c3 	add.w	r3, r2, r3, lsl #3
   29e9e:	605c      	str	r4, [r3, #4]
   29ea0:	6820      	ldr	r0, [r4, #0]
   29ea2:	e8bd 81f0 	ldmia.w	sp!, {r4, r5, r6, r7, r8, pc}
   29ea6:	4a02      	ldr	r2, [pc, #8]	; (29eb0 <start+0x90>)
   29ea8:	f842 4033 	str.w	r4, [r2, r3, lsl #3]
   29eac:	e7f4      	b.n	29e98 <start+0x78>
   29eae:	bf00      	nop
   29eb0:	20006600 	.word	0x20006600
   29eb4:	0002b728 	.word	0x0002b728
   29eb8:	000299fd 	.word	0x000299fd

00029ebc <system_call>:
   29ebc:	e92d 43f0 	stmdb	sp!, {r4, r5, r6, r7, r8, r9, lr}
   29ec0:	b089      	sub	sp, #36	; 0x24
   29ec2:	4604      	mov	r4, r0
   29ec4:	6bc3      	ldr	r3, [r0, #60]	; 0x3c
   29ec6:	f813 5c02 	ldrb.w	r5, [r3, #-2]
   29eca:	4b94      	ldr	r3, [pc, #592]	; (2a11c <system_call+0x260>)
   29ecc:	f8d3 3098 	ldr.w	r3, [r3, #152]	; 0x98
   29ed0:	6198      	str	r0, [r3, #24]
   29ed2:	69db      	ldr	r3, [r3, #28]
   29ed4:	681a      	ldr	r2, [r3, #0]
   29ed6:	4b92      	ldr	r3, [pc, #584]	; (2a120 <system_call+0x264>)
   29ed8:	429a      	cmp	r2, r3
   29eda:	d10a      	bne.n	29ef2 <system_call+0x36>
   29edc:	2d05      	cmp	r5, #5
   29ede:	f200 829a 	bhi.w	2a416 <system_call+0x55a>
   29ee2:	e8df f015 	tbh	[pc, r5, lsl #1]
   29ee6:	000a      	.short	0x000a
   29ee8:	00d70045 	.word	0x00d70045
   29eec:	021a0199 	.word	0x021a0199
   29ef0:	0238      	.short	0x0238
   29ef2:	488c      	ldr	r0, [pc, #560]	; (2a124 <system_call+0x268>)
   29ef4:	f7ff fe72 	bl	29bdc <panic>
   29ef8:	e7f0      	b.n	29edc <system_call+0x20>
   29efa:	4b88      	ldr	r3, [pc, #544]	; (2a11c <system_call+0x260>)
   29efc:	f8d3 3098 	ldr.w	r3, [r3, #152]	; 0x98
   29f00:	6a5a      	ldr	r2, [r3, #36]	; 0x24
   29f02:	2a03      	cmp	r2, #3
   29f04:	d010      	beq.n	29f28 <system_call+0x6c>
   29f06:	2101      	movs	r1, #1
   29f08:	6159      	str	r1, [r3, #20]
   29f0a:	2100      	movs	r1, #0
   29f0c:	6399      	str	r1, [r3, #56]	; 0x38
   29f0e:	4983      	ldr	r1, [pc, #524]	; (2a11c <system_call+0x260>)
   29f10:	f851 1032 	ldr.w	r1, [r1, r2, lsl #3]
   29f14:	b1f1      	cbz	r1, 29f54 <system_call+0x98>
   29f16:	4981      	ldr	r1, [pc, #516]	; (2a11c <system_call+0x260>)
   29f18:	eb01 01c2 	add.w	r1, r1, r2, lsl #3
   29f1c:	6849      	ldr	r1, [r1, #4]
   29f1e:	638b      	str	r3, [r1, #56]	; 0x38
   29f20:	497e      	ldr	r1, [pc, #504]	; (2a11c <system_call+0x260>)
   29f22:	eb01 02c2 	add.w	r2, r1, r2, lsl #3
   29f26:	6053      	str	r3, [r2, #4]
   29f28:	4b7c      	ldr	r3, [pc, #496]	; (2a11c <system_call+0x260>)
   29f2a:	681b      	ldr	r3, [r3, #0]
   29f2c:	b9b3      	cbnz	r3, 29f5c <system_call+0xa0>
   29f2e:	4b7b      	ldr	r3, [pc, #492]	; (2a11c <system_call+0x260>)
   29f30:	689b      	ldr	r3, [r3, #8]
   29f32:	b9db      	cbnz	r3, 29f6c <system_call+0xb0>
   29f34:	4b79      	ldr	r3, [pc, #484]	; (2a11c <system_call+0x260>)
   29f36:	691b      	ldr	r3, [r3, #16]
   29f38:	2102      	movs	r1, #2
   29f3a:	b983      	cbnz	r3, 29f5e <system_call+0xa2>
   29f3c:	4b77      	ldr	r3, [pc, #476]	; (2a11c <system_call+0x260>)
   29f3e:	f8d3 209c 	ldr.w	r2, [r3, #156]	; 0x9c
   29f42:	f8c3 2098 	str.w	r2, [r3, #152]	; 0x98
   29f46:	4b75      	ldr	r3, [pc, #468]	; (2a11c <system_call+0x260>)
   29f48:	f8d3 3098 	ldr.w	r3, [r3, #152]	; 0x98
   29f4c:	6998      	ldr	r0, [r3, #24]
   29f4e:	b009      	add	sp, #36	; 0x24
   29f50:	e8bd 83f0 	ldmia.w	sp!, {r4, r5, r6, r7, r8, r9, pc}
   29f54:	4971      	ldr	r1, [pc, #452]	; (2a11c <system_call+0x260>)
   29f56:	f841 3032 	str.w	r3, [r1, r2, lsl #3]
   29f5a:	e7e1      	b.n	29f20 <system_call+0x64>
   29f5c:	2100      	movs	r1, #0
   29f5e:	4a6f      	ldr	r2, [pc, #444]	; (2a11c <system_call+0x260>)
   29f60:	f8c2 3098 	str.w	r3, [r2, #152]	; 0x98
   29f64:	6b9b      	ldr	r3, [r3, #56]	; 0x38
   29f66:	f842 3031 	str.w	r3, [r2, r1, lsl #3]
   29f6a:	e7ec      	b.n	29f46 <system_call+0x8a>
   29f6c:	2101      	movs	r1, #1
   29f6e:	e7f6      	b.n	29f5e <system_call+0xa2>
   29f70:	6a61      	ldr	r1, [r4, #36]	; 0x24
   29f72:	6aa6      	ldr	r6, [r4, #40]	; 0x28
   29f74:	6ae5      	ldr	r5, [r4, #44]	; 0x2c
   29f76:	46a8      	mov	r8, r5
   29f78:	4b68      	ldr	r3, [pc, #416]	; (2a11c <system_call+0x260>)
   29f7a:	f8d3 2098 	ldr.w	r2, [r3, #152]	; 0x98
   29f7e:	6817      	ldr	r7, [r2, #0]
   29f80:	eb03 0381 	add.w	r3, r3, r1, lsl #2
   29f84:	699c      	ldr	r4, [r3, #24]
   29f86:	2900      	cmp	r1, #0
   29f88:	db06      	blt.n	29f98 <system_call+0xdc>
   29f8a:	4b64      	ldr	r3, [pc, #400]	; (2a11c <system_call+0x260>)
   29f8c:	f8d3 31a0 	ldr.w	r3, [r3, #416]	; 0x1a0
   29f90:	4299      	cmp	r1, r3
   29f92:	d201      	bcs.n	29f98 <system_call+0xdc>
   29f94:	6963      	ldr	r3, [r4, #20]
   29f96:	b913      	cbnz	r3, 29f9e <system_call+0xe2>
   29f98:	4863      	ldr	r0, [pc, #396]	; (2a128 <system_call+0x26c>)
   29f9a:	f7ff fe1f 	bl	29bdc <panic>
   29f9e:	6963      	ldr	r3, [r4, #20]
   29fa0:	2b03      	cmp	r3, #3
   29fa2:	d023      	beq.n	29fec <system_call+0x130>
   29fa4:	4b5d      	ldr	r3, [pc, #372]	; (2a11c <system_call+0x260>)
   29fa6:	f8d3 1098 	ldr.w	r1, [r3, #152]	; 0x98
   29faa:	2302      	movs	r3, #2
   29fac:	614b      	str	r3, [r1, #20]
   29fae:	630e      	str	r6, [r1, #48]	; 0x30
   29fb0:	634d      	str	r5, [r1, #52]	; 0x34
   29fb2:	2300      	movs	r3, #0
   29fb4:	638b      	str	r3, [r1, #56]	; 0x38
   29fb6:	6aa3      	ldr	r3, [r4, #40]	; 0x28
   29fb8:	2b00      	cmp	r3, #0
   29fba:	d05f      	beq.n	2a07c <system_call+0x1c0>
   29fbc:	461a      	mov	r2, r3
   29fbe:	6b9b      	ldr	r3, [r3, #56]	; 0x38
   29fc0:	2b00      	cmp	r3, #0
   29fc2:	d1fb      	bne.n	29fbc <system_call+0x100>
   29fc4:	6391      	str	r1, [r2, #56]	; 0x38
   29fc6:	4b55      	ldr	r3, [pc, #340]	; (2a11c <system_call+0x260>)
   29fc8:	681b      	ldr	r3, [r3, #0]
   29fca:	2b00      	cmp	r3, #0
   29fcc:	d158      	bne.n	2a080 <system_call+0x1c4>
   29fce:	4b53      	ldr	r3, [pc, #332]	; (2a11c <system_call+0x260>)
   29fd0:	689b      	ldr	r3, [r3, #8]
   29fd2:	2b00      	cmp	r3, #0
   29fd4:	d15c      	bne.n	2a090 <system_call+0x1d4>
   29fd6:	4b51      	ldr	r3, [pc, #324]	; (2a11c <system_call+0x260>)
   29fd8:	691b      	ldr	r3, [r3, #16]
   29fda:	2102      	movs	r1, #2
   29fdc:	2b00      	cmp	r3, #0
   29fde:	d150      	bne.n	2a082 <system_call+0x1c6>
   29fe0:	4b4e      	ldr	r3, [pc, #312]	; (2a11c <system_call+0x260>)
   29fe2:	f8d3 209c 	ldr.w	r2, [r3, #156]	; 0x9c
   29fe6:	f8c3 2098 	str.w	r2, [r3, #152]	; 0x98
   29fea:	e7ac      	b.n	29f46 <system_call+0x8a>
   29fec:	6b23      	ldr	r3, [r4, #48]	; 0x30
   29fee:	f1b3 3fff 	cmp.w	r3, #4294967295	; 0xffffffff
   29ff2:	d001      	beq.n	29ff8 <system_call+0x13c>
   29ff4:	429e      	cmp	r6, r3
   29ff6:	d1d5      	bne.n	29fa4 <system_call+0xe8>
   29ff8:	f8d4 c034 	ldr.w	ip, [r4, #52]	; 0x34
   29ffc:	f1bc 0f00 	cmp.w	ip, #0
   2a000:	d008      	beq.n	2a014 <system_call+0x158>
   2a002:	b11d      	cbz	r5, 2a00c <system_call+0x150>
   2a004:	e898 000f 	ldmia.w	r8, {r0, r1, r2, r3}
   2a008:	e88c 000f 	stmia.w	ip, {r0, r1, r2, r3}
   2a00c:	f8ac 7002 	strh.w	r7, [ip, #2]
   2a010:	f8ac 6000 	strh.w	r6, [ip]
   2a014:	6a63      	ldr	r3, [r4, #36]	; 0x24
   2a016:	2b03      	cmp	r3, #3
   2a018:	d010      	beq.n	2a03c <system_call+0x180>
   2a01a:	2201      	movs	r2, #1
   2a01c:	6162      	str	r2, [r4, #20]
   2a01e:	2200      	movs	r2, #0
   2a020:	63a2      	str	r2, [r4, #56]	; 0x38
   2a022:	4a3e      	ldr	r2, [pc, #248]	; (2a11c <system_call+0x260>)
   2a024:	f852 2033 	ldr.w	r2, [r2, r3, lsl #3]
   2a028:	b302      	cbz	r2, 2a06c <system_call+0x1b0>
   2a02a:	4a3c      	ldr	r2, [pc, #240]	; (2a11c <system_call+0x260>)
   2a02c:	eb02 02c3 	add.w	r2, r2, r3, lsl #3
   2a030:	6852      	ldr	r2, [r2, #4]
   2a032:	6394      	str	r4, [r2, #56]	; 0x38
   2a034:	4a39      	ldr	r2, [pc, #228]	; (2a11c <system_call+0x260>)
   2a036:	eb02 03c3 	add.w	r3, r2, r3, lsl #3
   2a03a:	605c      	str	r4, [r3, #4]
   2a03c:	4b37      	ldr	r3, [pc, #220]	; (2a11c <system_call+0x260>)
   2a03e:	f8d3 3098 	ldr.w	r3, [r3, #152]	; 0x98
   2a042:	6a5a      	ldr	r2, [r3, #36]	; 0x24
   2a044:	2a03      	cmp	r2, #3
   2a046:	d0be      	beq.n	29fc6 <system_call+0x10a>
   2a048:	2101      	movs	r1, #1
   2a04a:	6159      	str	r1, [r3, #20]
   2a04c:	2100      	movs	r1, #0
   2a04e:	6399      	str	r1, [r3, #56]	; 0x38
   2a050:	4932      	ldr	r1, [pc, #200]	; (2a11c <system_call+0x260>)
   2a052:	f851 1032 	ldr.w	r1, [r1, r2, lsl #3]
   2a056:	b169      	cbz	r1, 2a074 <system_call+0x1b8>
   2a058:	4930      	ldr	r1, [pc, #192]	; (2a11c <system_call+0x260>)
   2a05a:	eb01 01c2 	add.w	r1, r1, r2, lsl #3
   2a05e:	6849      	ldr	r1, [r1, #4]
   2a060:	638b      	str	r3, [r1, #56]	; 0x38
   2a062:	492e      	ldr	r1, [pc, #184]	; (2a11c <system_call+0x260>)
   2a064:	eb01 02c2 	add.w	r2, r1, r2, lsl #3
   2a068:	6053      	str	r3, [r2, #4]
   2a06a:	e7ac      	b.n	29fc6 <system_call+0x10a>
   2a06c:	4a2b      	ldr	r2, [pc, #172]	; (2a11c <system_call+0x260>)
   2a06e:	f842 4033 	str.w	r4, [r2, r3, lsl #3]
   2a072:	e7df      	b.n	2a034 <system_call+0x178>
   2a074:	4929      	ldr	r1, [pc, #164]	; (2a11c <system_call+0x260>)
   2a076:	f841 3032 	str.w	r3, [r1, r2, lsl #3]
   2a07a:	e7f2      	b.n	2a062 <system_call+0x1a6>
   2a07c:	62a1      	str	r1, [r4, #40]	; 0x28
   2a07e:	e7a2      	b.n	29fc6 <system_call+0x10a>
   2a080:	2100      	movs	r1, #0
   2a082:	4a26      	ldr	r2, [pc, #152]	; (2a11c <system_call+0x260>)
   2a084:	f8c2 3098 	str.w	r3, [r2, #152]	; 0x98
   2a088:	6b9b      	ldr	r3, [r3, #56]	; 0x38
   2a08a:	f842 3031 	str.w	r3, [r2, r1, lsl #3]
   2a08e:	e75a      	b.n	29f46 <system_call+0x8a>
   2a090:	2101      	movs	r1, #1
   2a092:	e7f6      	b.n	2a082 <system_call+0x1c6>
   2a094:	6a62      	ldr	r2, [r4, #36]	; 0x24
   2a096:	6aa6      	ldr	r6, [r4, #40]	; 0x28
   2a098:	4637      	mov	r7, r6
   2a09a:	4b20      	ldr	r3, [pc, #128]	; (2a11c <system_call+0x260>)
   2a09c:	f8d3 5098 	ldr.w	r5, [r3, #152]	; 0x98
   2a0a0:	6aeb      	ldr	r3, [r5, #44]	; 0x2c
   2a0a2:	b1b3      	cbz	r3, 2a0d2 <system_call+0x216>
   2a0a4:	f1b2 3fff 	cmp.w	r2, #4294967295	; 0xffffffff
   2a0a8:	d008      	beq.n	2a0bc <system_call+0x200>
   2a0aa:	2a01      	cmp	r2, #1
   2a0ac:	d006      	beq.n	2a0bc <system_call+0x200>
   2a0ae:	6aac      	ldr	r4, [r5, #40]	; 0x28
   2a0b0:	b18c      	cbz	r4, 2a0d6 <system_call+0x21a>
   2a0b2:	f1b2 3fff 	cmp.w	r2, #4294967295	; 0xffffffff
   2a0b6:	d067      	beq.n	2a188 <system_call+0x2cc>
   2a0b8:	2100      	movs	r1, #0
   2a0ba:	e027      	b.n	2a10c <system_call+0x250>
   2a0bc:	2300      	movs	r3, #0
   2a0be:	62eb      	str	r3, [r5, #44]	; 0x2c
   2a0c0:	2e00      	cmp	r6, #0
   2a0c2:	f43f af40 	beq.w	29f46 <system_call+0x8a>
   2a0c6:	f64f 73ff 	movw	r3, #65535	; 0xffff
   2a0ca:	8073      	strh	r3, [r6, #2]
   2a0cc:	2301      	movs	r3, #1
   2a0ce:	8033      	strh	r3, [r6, #0]
   2a0d0:	e739      	b.n	29f46 <system_call+0x8a>
   2a0d2:	2a01      	cmp	r2, #1
   2a0d4:	d1eb      	bne.n	2a0ae <system_call+0x1f2>
   2a0d6:	2303      	movs	r3, #3
   2a0d8:	616b      	str	r3, [r5, #20]
   2a0da:	632a      	str	r2, [r5, #48]	; 0x30
   2a0dc:	636e      	str	r6, [r5, #52]	; 0x34
   2a0de:	4b0f      	ldr	r3, [pc, #60]	; (2a11c <system_call+0x260>)
   2a0e0:	681b      	ldr	r3, [r3, #0]
   2a0e2:	2b00      	cmp	r3, #0
   2a0e4:	f040 808e 	bne.w	2a204 <system_call+0x348>
   2a0e8:	4b0c      	ldr	r3, [pc, #48]	; (2a11c <system_call+0x260>)
   2a0ea:	689b      	ldr	r3, [r3, #8]
   2a0ec:	2b00      	cmp	r3, #0
   2a0ee:	f040 8091 	bne.w	2a214 <system_call+0x358>
   2a0f2:	4b0a      	ldr	r3, [pc, #40]	; (2a11c <system_call+0x260>)
   2a0f4:	691b      	ldr	r3, [r3, #16]
   2a0f6:	2102      	movs	r1, #2
   2a0f8:	2b00      	cmp	r3, #0
   2a0fa:	f040 8084 	bne.w	2a206 <system_call+0x34a>
   2a0fe:	4b07      	ldr	r3, [pc, #28]	; (2a11c <system_call+0x260>)
   2a100:	f8d3 209c 	ldr.w	r2, [r3, #156]	; 0x9c
   2a104:	f8c3 2098 	str.w	r2, [r3, #152]	; 0x98
   2a108:	e71d      	b.n	29f46 <system_call+0x8a>
   2a10a:	461c      	mov	r4, r3
   2a10c:	6b23      	ldr	r3, [r4, #48]	; 0x30
   2a10e:	429a      	cmp	r2, r3
   2a110:	d00c      	beq.n	2a12c <system_call+0x270>
   2a112:	6ba3      	ldr	r3, [r4, #56]	; 0x38
   2a114:	4621      	mov	r1, r4
   2a116:	2b00      	cmp	r3, #0
   2a118:	d1f7      	bne.n	2a10a <system_call+0x24e>
   2a11a:	e7dc      	b.n	2a0d6 <system_call+0x21a>
   2a11c:	20006600 	.word	0x20006600
   2a120:	deadbeef 	.word	0xdeadbeef
   2a124:	0002b750 	.word	0x0002b750
   2a128:	0002b760 	.word	0x0002b760
   2a12c:	b361      	cbz	r1, 2a188 <system_call+0x2cc>
   2a12e:	6ba3      	ldr	r3, [r4, #56]	; 0x38
   2a130:	638b      	str	r3, [r1, #56]	; 0x38
   2a132:	b166      	cbz	r6, 2a14e <system_call+0x292>
   2a134:	f8d4 e000 	ldr.w	lr, [r4]
   2a138:	f8d4 c030 	ldr.w	ip, [r4, #48]	; 0x30
   2a13c:	6b63      	ldr	r3, [r4, #52]	; 0x34
   2a13e:	b113      	cbz	r3, 2a146 <system_call+0x28a>
   2a140:	cb0f      	ldmia	r3, {r0, r1, r2, r3}
   2a142:	e887 000f 	stmia.w	r7, {r0, r1, r2, r3}
   2a146:	f8a6 e002 	strh.w	lr, [r6, #2]
   2a14a:	f8a6 c000 	strh.w	ip, [r6]
   2a14e:	6a6b      	ldr	r3, [r5, #36]	; 0x24
   2a150:	2b03      	cmp	r3, #3
   2a152:	d010      	beq.n	2a176 <system_call+0x2ba>
   2a154:	2201      	movs	r2, #1
   2a156:	616a      	str	r2, [r5, #20]
   2a158:	2200      	movs	r2, #0
   2a15a:	63aa      	str	r2, [r5, #56]	; 0x38
   2a15c:	4a87      	ldr	r2, [pc, #540]	; (2a37c <system_call+0x4c0>)
   2a15e:	f852 2033 	ldr.w	r2, [r2, r3, lsl #3]
   2a162:	b1a2      	cbz	r2, 2a18e <system_call+0x2d2>
   2a164:	4a85      	ldr	r2, [pc, #532]	; (2a37c <system_call+0x4c0>)
   2a166:	eb02 02c3 	add.w	r2, r2, r3, lsl #3
   2a16a:	6852      	ldr	r2, [r2, #4]
   2a16c:	6395      	str	r5, [r2, #56]	; 0x38
   2a16e:	4a83      	ldr	r2, [pc, #524]	; (2a37c <system_call+0x4c0>)
   2a170:	eb02 03c3 	add.w	r3, r2, r3, lsl #3
   2a174:	605d      	str	r5, [r3, #4]
   2a176:	6963      	ldr	r3, [r4, #20]
   2a178:	2b02      	cmp	r3, #2
   2a17a:	d00c      	beq.n	2a196 <system_call+0x2da>
   2a17c:	2b04      	cmp	r3, #4
   2a17e:	d023      	beq.n	2a1c8 <system_call+0x30c>
   2a180:	487f      	ldr	r0, [pc, #508]	; (2a380 <system_call+0x4c4>)
   2a182:	f7ff fd2b 	bl	29bdc <panic>
   2a186:	e023      	b.n	2a1d0 <system_call+0x314>
   2a188:	6ba3      	ldr	r3, [r4, #56]	; 0x38
   2a18a:	62ab      	str	r3, [r5, #40]	; 0x28
   2a18c:	e7d1      	b.n	2a132 <system_call+0x276>
   2a18e:	4a7b      	ldr	r2, [pc, #492]	; (2a37c <system_call+0x4c0>)
   2a190:	f842 5033 	str.w	r5, [r2, r3, lsl #3]
   2a194:	e7eb      	b.n	2a16e <system_call+0x2b2>
   2a196:	6a63      	ldr	r3, [r4, #36]	; 0x24
   2a198:	2b03      	cmp	r3, #3
   2a19a:	d019      	beq.n	2a1d0 <system_call+0x314>
   2a19c:	2201      	movs	r2, #1
   2a19e:	6162      	str	r2, [r4, #20]
   2a1a0:	2200      	movs	r2, #0
   2a1a2:	63a2      	str	r2, [r4, #56]	; 0x38
   2a1a4:	4a75      	ldr	r2, [pc, #468]	; (2a37c <system_call+0x4c0>)
   2a1a6:	f852 2033 	ldr.w	r2, [r2, r3, lsl #3]
   2a1aa:	b14a      	cbz	r2, 2a1c0 <system_call+0x304>
   2a1ac:	4a73      	ldr	r2, [pc, #460]	; (2a37c <system_call+0x4c0>)
   2a1ae:	eb02 02c3 	add.w	r2, r2, r3, lsl #3
   2a1b2:	6852      	ldr	r2, [r2, #4]
   2a1b4:	6394      	str	r4, [r2, #56]	; 0x38
   2a1b6:	4a71      	ldr	r2, [pc, #452]	; (2a37c <system_call+0x4c0>)
   2a1b8:	eb02 03c3 	add.w	r3, r2, r3, lsl #3
   2a1bc:	605c      	str	r4, [r3, #4]
   2a1be:	e007      	b.n	2a1d0 <system_call+0x314>
   2a1c0:	4a6e      	ldr	r2, [pc, #440]	; (2a37c <system_call+0x4c0>)
   2a1c2:	f842 4033 	str.w	r4, [r2, r3, lsl #3]
   2a1c6:	e7f6      	b.n	2a1b6 <system_call+0x2fa>
   2a1c8:	6b61      	ldr	r1, [r4, #52]	; 0x34
   2a1ca:	4620      	mov	r0, r4
   2a1cc:	f7ff fbbc 	bl	29948 <await_reply>
   2a1d0:	4b6a      	ldr	r3, [pc, #424]	; (2a37c <system_call+0x4c0>)
   2a1d2:	681b      	ldr	r3, [r3, #0]
   2a1d4:	b963      	cbnz	r3, 2a1f0 <system_call+0x334>
   2a1d6:	4b69      	ldr	r3, [pc, #420]	; (2a37c <system_call+0x4c0>)
   2a1d8:	689b      	ldr	r3, [r3, #8]
   2a1da:	b98b      	cbnz	r3, 2a200 <system_call+0x344>
   2a1dc:	4b67      	ldr	r3, [pc, #412]	; (2a37c <system_call+0x4c0>)
   2a1de:	691b      	ldr	r3, [r3, #16]
   2a1e0:	2102      	movs	r1, #2
   2a1e2:	b933      	cbnz	r3, 2a1f2 <system_call+0x336>
   2a1e4:	4b65      	ldr	r3, [pc, #404]	; (2a37c <system_call+0x4c0>)
   2a1e6:	f8d3 209c 	ldr.w	r2, [r3, #156]	; 0x9c
   2a1ea:	f8c3 2098 	str.w	r2, [r3, #152]	; 0x98
   2a1ee:	e6aa      	b.n	29f46 <system_call+0x8a>
   2a1f0:	2100      	movs	r1, #0
   2a1f2:	4a62      	ldr	r2, [pc, #392]	; (2a37c <system_call+0x4c0>)
   2a1f4:	f8c2 3098 	str.w	r3, [r2, #152]	; 0x98
   2a1f8:	6b9b      	ldr	r3, [r3, #56]	; 0x38
   2a1fa:	f842 3031 	str.w	r3, [r2, r1, lsl #3]
   2a1fe:	e6a2      	b.n	29f46 <system_call+0x8a>
   2a200:	2101      	movs	r1, #1
   2a202:	e7f6      	b.n	2a1f2 <system_call+0x336>
   2a204:	2100      	movs	r1, #0
   2a206:	4a5d      	ldr	r2, [pc, #372]	; (2a37c <system_call+0x4c0>)
   2a208:	f8c2 3098 	str.w	r3, [r2, #152]	; 0x98
   2a20c:	6b9b      	ldr	r3, [r3, #56]	; 0x38
   2a20e:	f842 3031 	str.w	r3, [r2, r1, lsl #3]
   2a212:	e698      	b.n	29f46 <system_call+0x8a>
   2a214:	2101      	movs	r1, #1
   2a216:	e7f6      	b.n	2a206 <system_call+0x34a>
   2a218:	6a65      	ldr	r5, [r4, #36]	; 0x24
   2a21a:	6aa6      	ldr	r6, [r4, #40]	; 0x28
   2a21c:	6ae7      	ldr	r7, [r4, #44]	; 0x2c
   2a21e:	46b8      	mov	r8, r7
   2a220:	4b56      	ldr	r3, [pc, #344]	; (2a37c <system_call+0x4c0>)
   2a222:	f8d3 2098 	ldr.w	r2, [r3, #152]	; 0x98
   2a226:	f8d2 9000 	ldr.w	r9, [r2]
   2a22a:	eb03 0385 	add.w	r3, r3, r5, lsl #2
   2a22e:	699c      	ldr	r4, [r3, #24]
   2a230:	2e02      	cmp	r6, #2
   2a232:	d033      	beq.n	2a29c <system_call+0x3e0>
   2a234:	2d00      	cmp	r5, #0
   2a236:	db06      	blt.n	2a246 <system_call+0x38a>
   2a238:	4b50      	ldr	r3, [pc, #320]	; (2a37c <system_call+0x4c0>)
   2a23a:	f8d3 31a0 	ldr.w	r3, [r3, #416]	; 0x1a0
   2a23e:	429d      	cmp	r5, r3
   2a240:	d201      	bcs.n	2a246 <system_call+0x38a>
   2a242:	6963      	ldr	r3, [r4, #20]
   2a244:	b91b      	cbnz	r3, 2a24e <system_call+0x392>
   2a246:	4629      	mov	r1, r5
   2a248:	484e      	ldr	r0, [pc, #312]	; (2a384 <system_call+0x4c8>)
   2a24a:	f7ff fcc7 	bl	29bdc <panic>
   2a24e:	6963      	ldr	r3, [r4, #20]
   2a250:	2b03      	cmp	r3, #3
   2a252:	d027      	beq.n	2a2a4 <system_call+0x3e8>
   2a254:	4b49      	ldr	r3, [pc, #292]	; (2a37c <system_call+0x4c0>)
   2a256:	f8d3 1098 	ldr.w	r1, [r3, #152]	; 0x98
   2a25a:	2304      	movs	r3, #4
   2a25c:	614b      	str	r3, [r1, #20]
   2a25e:	630e      	str	r6, [r1, #48]	; 0x30
   2a260:	634f      	str	r7, [r1, #52]	; 0x34
   2a262:	2300      	movs	r3, #0
   2a264:	638b      	str	r3, [r1, #56]	; 0x38
   2a266:	6aa3      	ldr	r3, [r4, #40]	; 0x28
   2a268:	2b00      	cmp	r3, #0
   2a26a:	d04a      	beq.n	2a302 <system_call+0x446>
   2a26c:	461a      	mov	r2, r3
   2a26e:	6b9b      	ldr	r3, [r3, #56]	; 0x38
   2a270:	2b00      	cmp	r3, #0
   2a272:	d1fb      	bne.n	2a26c <system_call+0x3b0>
   2a274:	6391      	str	r1, [r2, #56]	; 0x38
   2a276:	4b41      	ldr	r3, [pc, #260]	; (2a37c <system_call+0x4c0>)
   2a278:	681b      	ldr	r3, [r3, #0]
   2a27a:	2b00      	cmp	r3, #0
   2a27c:	d143      	bne.n	2a306 <system_call+0x44a>
   2a27e:	4b3f      	ldr	r3, [pc, #252]	; (2a37c <system_call+0x4c0>)
   2a280:	689b      	ldr	r3, [r3, #8]
   2a282:	2b00      	cmp	r3, #0
   2a284:	d147      	bne.n	2a316 <system_call+0x45a>
   2a286:	4b3d      	ldr	r3, [pc, #244]	; (2a37c <system_call+0x4c0>)
   2a288:	691b      	ldr	r3, [r3, #16]
   2a28a:	2102      	movs	r1, #2
   2a28c:	2b00      	cmp	r3, #0
   2a28e:	d13b      	bne.n	2a308 <system_call+0x44c>
   2a290:	4b3a      	ldr	r3, [pc, #232]	; (2a37c <system_call+0x4c0>)
   2a292:	f8d3 209c 	ldr.w	r2, [r3, #156]	; 0x9c
   2a296:	f8c3 2098 	str.w	r2, [r3, #152]	; 0x98
   2a29a:	e654      	b.n	29f46 <system_call+0x8a>
   2a29c:	483a      	ldr	r0, [pc, #232]	; (2a388 <system_call+0x4cc>)
   2a29e:	f7ff fc9d 	bl	29bdc <panic>
   2a2a2:	e7c7      	b.n	2a234 <system_call+0x378>
   2a2a4:	6b23      	ldr	r3, [r4, #48]	; 0x30
   2a2a6:	f1b3 3fff 	cmp.w	r3, #4294967295	; 0xffffffff
   2a2aa:	d001      	beq.n	2a2b0 <system_call+0x3f4>
   2a2ac:	429e      	cmp	r6, r3
   2a2ae:	d1d1      	bne.n	2a254 <system_call+0x398>
   2a2b0:	6b65      	ldr	r5, [r4, #52]	; 0x34
   2a2b2:	b13d      	cbz	r5, 2a2c4 <system_call+0x408>
   2a2b4:	b11f      	cbz	r7, 2a2be <system_call+0x402>
   2a2b6:	e898 000f 	ldmia.w	r8, {r0, r1, r2, r3}
   2a2ba:	e885 000f 	stmia.w	r5, {r0, r1, r2, r3}
   2a2be:	f8a5 9002 	strh.w	r9, [r5, #2]
   2a2c2:	802e      	strh	r6, [r5, #0]
   2a2c4:	6a63      	ldr	r3, [r4, #36]	; 0x24
   2a2c6:	2b03      	cmp	r3, #3
   2a2c8:	d010      	beq.n	2a2ec <system_call+0x430>
   2a2ca:	2201      	movs	r2, #1
   2a2cc:	6162      	str	r2, [r4, #20]
   2a2ce:	2200      	movs	r2, #0
   2a2d0:	63a2      	str	r2, [r4, #56]	; 0x38
   2a2d2:	4a2a      	ldr	r2, [pc, #168]	; (2a37c <system_call+0x4c0>)
   2a2d4:	f852 2033 	ldr.w	r2, [r2, r3, lsl #3]
   2a2d8:	b17a      	cbz	r2, 2a2fa <system_call+0x43e>
   2a2da:	4a28      	ldr	r2, [pc, #160]	; (2a37c <system_call+0x4c0>)
   2a2dc:	eb02 02c3 	add.w	r2, r2, r3, lsl #3
   2a2e0:	6852      	ldr	r2, [r2, #4]
   2a2e2:	6394      	str	r4, [r2, #56]	; 0x38
   2a2e4:	4a25      	ldr	r2, [pc, #148]	; (2a37c <system_call+0x4c0>)
   2a2e6:	eb02 03c3 	add.w	r3, r2, r3, lsl #3
   2a2ea:	605c      	str	r4, [r3, #4]
   2a2ec:	4639      	mov	r1, r7
   2a2ee:	4b23      	ldr	r3, [pc, #140]	; (2a37c <system_call+0x4c0>)
   2a2f0:	f8d3 0098 	ldr.w	r0, [r3, #152]	; 0x98
   2a2f4:	f7ff fb28 	bl	29948 <await_reply>
   2a2f8:	e7bd      	b.n	2a276 <system_call+0x3ba>
   2a2fa:	4a20      	ldr	r2, [pc, #128]	; (2a37c <system_call+0x4c0>)
   2a2fc:	f842 4033 	str.w	r4, [r2, r3, lsl #3]
   2a300:	e7f0      	b.n	2a2e4 <system_call+0x428>
   2a302:	62a1      	str	r1, [r4, #40]	; 0x28
   2a304:	e7b7      	b.n	2a276 <system_call+0x3ba>
   2a306:	2100      	movs	r1, #0
   2a308:	4a1c      	ldr	r2, [pc, #112]	; (2a37c <system_call+0x4c0>)
   2a30a:	f8c2 3098 	str.w	r3, [r2, #152]	; 0x98
   2a30e:	6b9b      	ldr	r3, [r3, #56]	; 0x38
   2a310:	f842 3031 	str.w	r3, [r2, r1, lsl #3]
   2a314:	e617      	b.n	29f46 <system_call+0x8a>
   2a316:	2101      	movs	r1, #1
   2a318:	e7f6      	b.n	2a308 <system_call+0x44c>
   2a31a:	4b18      	ldr	r3, [pc, #96]	; (2a37c <system_call+0x4c0>)
   2a31c:	f8d3 2098 	ldr.w	r2, [r3, #152]	; 0x98
   2a320:	2100      	movs	r1, #0
   2a322:	6151      	str	r1, [r2, #20]
   2a324:	681b      	ldr	r3, [r3, #0]
   2a326:	b963      	cbnz	r3, 2a342 <system_call+0x486>
   2a328:	4b14      	ldr	r3, [pc, #80]	; (2a37c <system_call+0x4c0>)
   2a32a:	689b      	ldr	r3, [r3, #8]
   2a32c:	b98b      	cbnz	r3, 2a352 <system_call+0x496>
   2a32e:	4b13      	ldr	r3, [pc, #76]	; (2a37c <system_call+0x4c0>)
   2a330:	691b      	ldr	r3, [r3, #16]
   2a332:	2102      	movs	r1, #2
   2a334:	b933      	cbnz	r3, 2a344 <system_call+0x488>
   2a336:	4b11      	ldr	r3, [pc, #68]	; (2a37c <system_call+0x4c0>)
   2a338:	f8d3 209c 	ldr.w	r2, [r3, #156]	; 0x9c
   2a33c:	f8c3 2098 	str.w	r2, [r3, #152]	; 0x98
   2a340:	e601      	b.n	29f46 <system_call+0x8a>
   2a342:	2100      	movs	r1, #0
   2a344:	4a0d      	ldr	r2, [pc, #52]	; (2a37c <system_call+0x4c0>)
   2a346:	f8c2 3098 	str.w	r3, [r2, #152]	; 0x98
   2a34a:	6b9b      	ldr	r3, [r3, #56]	; 0x38
   2a34c:	f842 3031 	str.w	r3, [r2, r1, lsl #3]
   2a350:	e5f9      	b.n	29f46 <system_call+0x8a>
   2a352:	2101      	movs	r1, #1
   2a354:	e7f6      	b.n	2a344 <system_call+0x488>
   2a356:	f7ff fb53 	bl	29a00 <kprintf_setup>
   2a35a:	480c      	ldr	r0, [pc, #48]	; (2a38c <system_call+0x4d0>)
   2a35c:	f7ff fb8e 	bl	29a7c <kprintf_internal>
   2a360:	4b06      	ldr	r3, [pc, #24]	; (2a37c <system_call+0x4c0>)
   2a362:	f8d3 31a0 	ldr.w	r3, [r3, #416]	; 0x1a0
   2a366:	2b00      	cmp	r3, #0
   2a368:	f43f aded 	beq.w	29f46 <system_call+0x8a>
   2a36c:	4f08      	ldr	r7, [pc, #32]	; (2a390 <system_call+0x4d4>)
   2a36e:	2500      	movs	r5, #0
   2a370:	4e08      	ldr	r6, [pc, #32]	; (2a394 <system_call+0x4d8>)
   2a372:	f8df 8024 	ldr.w	r8, [pc, #36]	; 2a398 <system_call+0x4dc>
   2a376:	e02c      	b.n	2a3d2 <system_call+0x516>
   2a378:	4601      	mov	r1, r0
   2a37a:	e035      	b.n	2a3e8 <system_call+0x52c>
   2a37c:	20006600 	.word	0x20006600
   2a380:	0002b788 	.word	0x0002b788
   2a384:	0002b760 	.word	0x0002b760
   2a388:	0002b7a0 	.word	0x0002b7a0
   2a38c:	0002b7d0 	.word	0x0002b7d0
   2a390:	20006618 	.word	0x20006618
   2a394:	deadbeef 	.word	0xdeadbeef
   2a398:	0002b7e4 	.word	0x0002b7e4
   2a39c:	6962      	ldr	r2, [r4, #20]
   2a39e:	4b20      	ldr	r3, [pc, #128]	; (2a420 <system_call+0x564>)
   2a3a0:	eb03 0382 	add.w	r3, r3, r2, lsl #2
   2a3a4:	1d22      	adds	r2, r4, #4
   2a3a6:	9202      	str	r2, [sp, #8]
   2a3a8:	aa04      	add	r2, sp, #16
   2a3aa:	9201      	str	r2, [sp, #4]
   2a3ac:	69e2      	ldr	r2, [r4, #28]
   2a3ae:	9200      	str	r2, [sp, #0]
   2a3b0:	69db      	ldr	r3, [r3, #28]
   2a3b2:	462a      	mov	r2, r5
   2a3b4:	481b      	ldr	r0, [pc, #108]	; (2a424 <system_call+0x568>)
   2a3b6:	491c      	ldr	r1, [pc, #112]	; (2a428 <system_call+0x56c>)
   2a3b8:	2d09      	cmp	r5, #9
   2a3ba:	bfd8      	it	le
   2a3bc:	4601      	movle	r1, r0
   2a3be:	481b      	ldr	r0, [pc, #108]	; (2a42c <system_call+0x570>)
   2a3c0:	f7ff fb5c 	bl	29a7c <kprintf_internal>
   2a3c4:	3501      	adds	r5, #1
   2a3c6:	4b1a      	ldr	r3, [pc, #104]	; (2a430 <system_call+0x574>)
   2a3c8:	f8d3 31a0 	ldr.w	r3, [r3, #416]	; 0x1a0
   2a3cc:	42ab      	cmp	r3, r5
   2a3ce:	f67f adba 	bls.w	29f46 <system_call+0x8a>
   2a3d2:	f857 4b04 	ldr.w	r4, [r7], #4
   2a3d6:	69e0      	ldr	r0, [r4, #28]
   2a3d8:	6803      	ldr	r3, [r0, #0]
   2a3da:	42b3      	cmp	r3, r6
   2a3dc:	d1cc      	bne.n	2a378 <system_call+0x4bc>
   2a3de:	4601      	mov	r1, r0
   2a3e0:	f851 3f04 	ldr.w	r3, [r1, #4]!
   2a3e4:	42b3      	cmp	r3, r6
   2a3e6:	d0fb      	beq.n	2a3e0 <system_call+0x524>
   2a3e8:	6a23      	ldr	r3, [r4, #32]
   2a3ea:	1a09      	subs	r1, r1, r0
   2a3ec:	1a5a      	subs	r2, r3, r1
   2a3ee:	4641      	mov	r1, r8
   2a3f0:	a804      	add	r0, sp, #16
   2a3f2:	f000 fe4d 	bl	2b090 <sprintf>
   2a3f6:	a804      	add	r0, sp, #16
   2a3f8:	f000 ffe2 	bl	2b3c0 <strlen>
   2a3fc:	2808      	cmp	r0, #8
   2a3fe:	dccd      	bgt.n	2a39c <system_call+0x4e0>
   2a400:	f1c0 0209 	rsb	r2, r0, #9
   2a404:	2120      	movs	r1, #32
   2a406:	ab04      	add	r3, sp, #16
   2a408:	4418      	add	r0, r3
   2a40a:	f000 fec9 	bl	2b1a0 <memset>
   2a40e:	2300      	movs	r3, #0
   2a410:	f88d 3019 	strb.w	r3, [sp, #25]
   2a414:	e7c2      	b.n	2a39c <system_call+0x4e0>
   2a416:	4629      	mov	r1, r5
   2a418:	4806      	ldr	r0, [pc, #24]	; (2a434 <system_call+0x578>)
   2a41a:	f7ff fbdf 	bl	29bdc <panic>
   2a41e:	e592      	b.n	29f46 <system_call+0x8a>
   2a420:	0002b8b8 	.word	0x0002b8b8
   2a424:	0002b878 	.word	0x0002b878
   2a428:	0002b7e0 	.word	0x0002b7e0
   2a42c:	0002b7ec 	.word	0x0002b7ec
   2a430:	20006600 	.word	0x20006600
   2a434:	0002b804 	.word	0x0002b804

0002a438 <badmesg>:
   2a438:	b508      	push	{r3, lr}
   2a43a:	4601      	mov	r1, r0
   2a43c:	4801      	ldr	r0, [pc, #4]	; (2a444 <badmesg+0xc>)
   2a43e:	f7ff fbcd 	bl	29bdc <panic>
   2a442:	bd08      	pop	{r3, pc}
   2a444:	0002b818 	.word	0x0002b818

0002a448 <set_stack>:
   2a448:	f380 8809 	msr	PSP, r0
   2a44c:	2002      	movs	r0, #2
   2a44e:	f380 8814 	msr	CONTROL, r0
   2a452:	f3bf 8f6f 	isb	sy
   2a456:	4770      	bx	lr

0002a458 <svc_handler>:
   2a458:	f3ef 8009 	mrs	r0, PSP
   2a45c:	4673      	mov	r3, lr
   2a45e:	e920 0ff8 	stmdb	r0!, {r3, r4, r5, r6, r7, r8, r9, sl, fp}
   2a462:	f7ff fd2b 	bl	29ebc <system_call>
   2a466:	e8b0 0ff8 	ldmia.w	r0!, {r3, r4, r5, r6, r7, r8, r9, sl, fp}
   2a46a:	f380 8809 	msr	PSP, r0
   2a46e:	4718      	bx	r3

0002a470 <pendsv_handler>:
   2a470:	f3ef 8009 	mrs	r0, PSP
   2a474:	4673      	mov	r3, lr
   2a476:	e920 0ff8 	stmdb	r0!, {r3, r4, r5, r6, r7, r8, r9, sl, fp}
   2a47a:	f7ff fb4f 	bl	29b1c <cxt_switch>
   2a47e:	e8b0 0ff8 	ldmia.w	r0!, {r3, r4, r5, r6, r7, r8, r9, sl, fp}
   2a482:	f380 8809 	msr	PSP, r0
   2a486:	4718      	bx	r3

0002a488 <timer_task>:
   2a488:	b580      	push	{r7, lr}
   2a48a:	b088      	sub	sp, #32
   2a48c:	4b35      	ldr	r3, [pc, #212]	; (2a564 <timer_task+0xdc>)
   2a48e:	2201      	movs	r2, #1
   2a490:	605a      	str	r2, [r3, #4]
   2a492:	2100      	movs	r1, #0
   2a494:	f8c3 1504 	str.w	r1, [r3, #1284]	; 0x504
   2a498:	f8c3 1508 	str.w	r1, [r3, #1288]	; 0x508
   2a49c:	2104      	movs	r1, #4
   2a49e:	f8c3 1510 	str.w	r1, [r3, #1296]	; 0x510
   2a4a2:	60da      	str	r2, [r3, #12]
   2a4a4:	f44f 717a 	mov.w	r1, #1000	; 0x3e8
   2a4a8:	f8c3 1540 	str.w	r1, [r3, #1344]	; 0x540
   2a4ac:	f8c3 2200 	str.w	r2, [r3, #512]	; 0x200
   2a4b0:	f44f 3180 	mov.w	r1, #65536	; 0x10000
   2a4b4:	f8c3 1304 	str.w	r1, [r3, #772]	; 0x304
   2a4b8:	601a      	str	r2, [r3, #0]
   2a4ba:	f04f 23e0 	mov.w	r3, #3758153728	; 0xe000e000
   2a4be:	f44f 7200 	mov.w	r2, #512	; 0x200
   2a4c2:	f8c3 2100 	str.w	r2, [r3, #256]	; 0x100
   2a4c6:	4d28      	ldr	r5, [pc, #160]	; (2a568 <timer_task+0xe0>)
   2a4c8:	f8df a0a0 	ldr.w	sl, [pc, #160]	; 2a56c <timer_task+0xe4>
   2a4cc:	e03b      	b.n	2a546 <timer_task+0xbe>
   2a4ce:	4c26      	ldr	r4, [pc, #152]	; (2a568 <timer_task+0xe0>)
   2a4d0:	f104 0860 	add.w	r8, r4, #96	; 0x60
   2a4d4:	f04f 0905 	mov.w	r9, #5
   2a4d8:	e005      	b.n	2a4e6 <timer_task+0x5e>
   2a4da:	f04f 33ff 	mov.w	r3, #4294967295	; 0xffffffff
   2a4de:	6023      	str	r3, [r4, #0]
   2a4e0:	340c      	adds	r4, #12
   2a4e2:	4544      	cmp	r4, r8
   2a4e4:	d02f      	beq.n	2a546 <timer_task+0xbe>
   2a4e6:	6820      	ldr	r0, [r4, #0]
   2a4e8:	2800      	cmp	r0, #0
   2a4ea:	dbf9      	blt.n	2a4e0 <timer_task+0x58>
   2a4ec:	68a3      	ldr	r3, [r4, #8]
   2a4ee:	6e2a      	ldr	r2, [r5, #96]	; 0x60
   2a4f0:	4293      	cmp	r3, r2
   2a4f2:	d8f5      	bhi.n	2a4e0 <timer_task+0x58>
   2a4f4:	9301      	str	r3, [sp, #4]
   2a4f6:	466a      	mov	r2, sp
   2a4f8:	4649      	mov	r1, r9
   2a4fa:	f7ff fb4d 	bl	29b98 <send>
   2a4fe:	6863      	ldr	r3, [r4, #4]
   2a500:	2b00      	cmp	r3, #0
   2a502:	d0ea      	beq.n	2a4da <timer_task+0x52>
   2a504:	68a2      	ldr	r2, [r4, #8]
   2a506:	4413      	add	r3, r2
   2a508:	60a3      	str	r3, [r4, #8]
   2a50a:	e7e9      	b.n	2a4e0 <timer_task+0x58>
   2a50c:	f9bd 9012 	ldrsh.w	r9, [sp, #18]
   2a510:	9e05      	ldr	r6, [sp, #20]
   2a512:	9f06      	ldr	r7, [sp, #24]
   2a514:	4b14      	ldr	r3, [pc, #80]	; (2a568 <timer_task+0xe0>)
   2a516:	2400      	movs	r4, #0
   2a518:	681a      	ldr	r2, [r3, #0]
   2a51a:	2a00      	cmp	r2, #0
   2a51c:	db07      	blt.n	2a52e <timer_task+0xa6>
   2a51e:	3401      	adds	r4, #1
   2a520:	330c      	adds	r3, #12
   2a522:	2c08      	cmp	r4, #8
   2a524:	d1f8      	bne.n	2a518 <timer_task+0x90>
   2a526:	4650      	mov	r0, sl
   2a528:	f7ff fb58 	bl	29bdc <panic>
   2a52c:	e001      	b.n	2a532 <timer_task+0xaa>
   2a52e:	2c08      	cmp	r4, #8
   2a530:	d0f9      	beq.n	2a526 <timer_task+0x9e>
   2a532:	eb04 0344 	add.w	r3, r4, r4, lsl #1
   2a536:	eb05 0283 	add.w	r2, r5, r3, lsl #2
   2a53a:	f845 9023 	str.w	r9, [r5, r3, lsl #2]
   2a53e:	6e2b      	ldr	r3, [r5, #96]	; 0x60
   2a540:	4433      	add	r3, r6
   2a542:	6093      	str	r3, [r2, #8]
   2a544:	6057      	str	r7, [r2, #4]
   2a546:	a904      	add	r1, sp, #16
   2a548:	f04f 30ff 	mov.w	r0, #4294967295	; 0xffffffff
   2a54c:	f7ff fb26 	bl	29b9c <receive>
   2a550:	f8bd 0010 	ldrh.w	r0, [sp, #16]
   2a554:	2801      	cmp	r0, #1
   2a556:	d0ba      	beq.n	2a4ce <timer_task+0x46>
   2a558:	2804      	cmp	r0, #4
   2a55a:	d0d7      	beq.n	2a50c <timer_task+0x84>
   2a55c:	f7ff ff6c 	bl	2a438 <badmesg>
   2a560:	e7f1      	b.n	2a546 <timer_task+0xbe>
   2a562:	bf00      	nop
   2a564:	40009000 	.word	0x40009000
   2a568:	200067a4 	.word	0x200067a4
   2a56c:	0002b8ec 	.word	0x0002b8ec

0002a570 <timer1_handler>:
   2a570:	b508      	push	{r3, lr}
   2a572:	4b08      	ldr	r3, [pc, #32]	; (2a594 <timer1_handler+0x24>)
   2a574:	f8d3 3140 	ldr.w	r3, [r3, #320]	; 0x140
   2a578:	b903      	cbnz	r3, 2a57c <timer1_handler+0xc>
   2a57a:	bd08      	pop	{r3, pc}
   2a57c:	4b06      	ldr	r3, [pc, #24]	; (2a598 <timer1_handler+0x28>)
   2a57e:	6e1a      	ldr	r2, [r3, #96]	; 0x60
   2a580:	3201      	adds	r2, #1
   2a582:	661a      	str	r2, [r3, #96]	; 0x60
   2a584:	4a03      	ldr	r2, [pc, #12]	; (2a594 <timer1_handler+0x24>)
   2a586:	2100      	movs	r1, #0
   2a588:	f8c2 1140 	str.w	r1, [r2, #320]	; 0x140
   2a58c:	6e58      	ldr	r0, [r3, #100]	; 0x64
   2a58e:	f7ff fa87 	bl	29aa0 <interrupt>
   2a592:	e7f2      	b.n	2a57a <timer1_handler+0xa>
   2a594:	40009000 	.word	0x40009000
   2a598:	200067a4 	.word	0x200067a4

0002a59c <timer_init>:
   2a59c:	b510      	push	{r4, lr}
   2a59e:	4c0a      	ldr	r4, [pc, #40]	; (2a5c8 <timer_init+0x2c>)
   2a5a0:	f04f 33ff 	mov.w	r3, #4294967295	; 0xffffffff
   2a5a4:	6023      	str	r3, [r4, #0]
   2a5a6:	60e3      	str	r3, [r4, #12]
   2a5a8:	61a3      	str	r3, [r4, #24]
   2a5aa:	6263      	str	r3, [r4, #36]	; 0x24
   2a5ac:	6323      	str	r3, [r4, #48]	; 0x30
   2a5ae:	63e3      	str	r3, [r4, #60]	; 0x3c
   2a5b0:	64a3      	str	r3, [r4, #72]	; 0x48
   2a5b2:	6563      	str	r3, [r4, #84]	; 0x54
   2a5b4:	f44f 7380 	mov.w	r3, #256	; 0x100
   2a5b8:	2200      	movs	r2, #0
   2a5ba:	4904      	ldr	r1, [pc, #16]	; (2a5cc <timer_init+0x30>)
   2a5bc:	4804      	ldr	r0, [pc, #16]	; (2a5d0 <timer_init+0x34>)
   2a5be:	f7ff fc2f 	bl	29e20 <start>
   2a5c2:	6660      	str	r0, [r4, #100]	; 0x64
   2a5c4:	bd10      	pop	{r4, pc}
   2a5c6:	bf00      	nop
   2a5c8:	200067a4 	.word	0x200067a4
   2a5cc:	0002a489 	.word	0x0002a489
   2a5d0:	0002b8fc 	.word	0x0002b8fc

0002a5d4 <timer_now>:
   2a5d4:	4b01      	ldr	r3, [pc, #4]	; (2a5dc <timer_now+0x8>)
   2a5d6:	6e18      	ldr	r0, [r3, #96]	; 0x60
   2a5d8:	4770      	bx	lr
   2a5da:	bf00      	nop
   2a5dc:	200067a4 	.word	0x200067a4

0002a5e0 <timer_micros>:
   2a5e0:	b672      	cpsid	i
   2a5e2:	4b0b      	ldr	r3, [pc, #44]	; (2a610 <timer_micros+0x30>)
   2a5e4:	2201      	movs	r2, #1
   2a5e6:	645a      	str	r2, [r3, #68]	; 0x44
   2a5e8:	f8d3 1140 	ldr.w	r1, [r3, #320]	; 0x140
   2a5ec:	649a      	str	r2, [r3, #72]	; 0x48
   2a5ee:	f8d3 2544 	ldr.w	r2, [r3, #1348]	; 0x544
   2a5f2:	f8d3 0548 	ldr.w	r0, [r3, #1352]	; 0x548
   2a5f6:	4b07      	ldr	r3, [pc, #28]	; (2a614 <timer_micros+0x34>)
   2a5f8:	6e1b      	ldr	r3, [r3, #96]	; 0x60
   2a5fa:	b662      	cpsie	i
   2a5fc:	b111      	cbz	r1, 2a604 <timer_micros+0x24>
   2a5fe:	4282      	cmp	r2, r0
   2a600:	bf98      	it	ls
   2a602:	3301      	addls	r3, #1
   2a604:	f44f 707a 	mov.w	r0, #1000	; 0x3e8
   2a608:	fb00 2003 	mla	r0, r0, r3, r2
   2a60c:	4770      	bx	lr
   2a60e:	bf00      	nop
   2a610:	40009000 	.word	0x40009000
   2a614:	200067a4 	.word	0x200067a4

0002a618 <timer_delay>:
   2a618:	b510      	push	{r4, lr}
   2a61a:	b084      	sub	sp, #16
   2a61c:	9001      	str	r0, [sp, #4]
   2a61e:	2400      	movs	r4, #0
   2a620:	9402      	str	r4, [sp, #8]
   2a622:	466a      	mov	r2, sp
   2a624:	2104      	movs	r1, #4
   2a626:	4b05      	ldr	r3, [pc, #20]	; (2a63c <timer_delay+0x24>)
   2a628:	6e58      	ldr	r0, [r3, #100]	; 0x64
   2a62a:	f7ff fab5 	bl	29b98 <send>
   2a62e:	4621      	mov	r1, r4
   2a630:	2005      	movs	r0, #5
   2a632:	f7ff fab3 	bl	29b9c <receive>
   2a636:	b004      	add	sp, #16
   2a638:	bd10      	pop	{r4, pc}
   2a63a:	bf00      	nop
   2a63c:	200067a4 	.word	0x200067a4

0002a640 <timer_pulse>:
   2a640:	b500      	push	{lr}
   2a642:	b085      	sub	sp, #20
   2a644:	9001      	str	r0, [sp, #4]
   2a646:	9002      	str	r0, [sp, #8]
   2a648:	466a      	mov	r2, sp
   2a64a:	2104      	movs	r1, #4
   2a64c:	4b03      	ldr	r3, [pc, #12]	; (2a65c <timer_pulse+0x1c>)
   2a64e:	6e58      	ldr	r0, [r3, #100]	; 0x64
   2a650:	f7ff faa2 	bl	29b98 <send>
   2a654:	b005      	add	sp, #20
   2a656:	f85d fb04 	ldr.w	pc, [sp], #4
   2a65a:	bf00      	nop
   2a65c:	200067a4 	.word	0x200067a4

0002a660 <timer_wait>:
   2a660:	b508      	push	{r3, lr}
   2a662:	2100      	movs	r1, #0
   2a664:	2005      	movs	r0, #5
   2a666:	f7ff fa99 	bl	29b9c <receive>
   2a66a:	bd08      	pop	{r3, pc}

0002a66c <echo>:
   2a66c:	4b08      	ldr	r3, [pc, #32]	; (2a690 <echo+0x24>)
   2a66e:	681a      	ldr	r2, [r3, #0]
   2a670:	f5b2 7f80 	cmp.w	r2, #256	; 0x100
   2a674:	d00b      	beq.n	2a68e <echo+0x22>
   2a676:	b410      	push	{r4}
   2a678:	4619      	mov	r1, r3
   2a67a:	685b      	ldr	r3, [r3, #4]
   2a67c:	18cc      	adds	r4, r1, r3
   2a67e:	7220      	strb	r0, [r4, #8]
   2a680:	3301      	adds	r3, #1
   2a682:	b2db      	uxtb	r3, r3
   2a684:	604b      	str	r3, [r1, #4]
   2a686:	3201      	adds	r2, #1
   2a688:	600a      	str	r2, [r1, #0]
   2a68a:	bc10      	pop	{r4}
   2a68c:	4770      	bx	lr
   2a68e:	4770      	bx	lr
   2a690:	2000680c 	.word	0x2000680c

0002a694 <reply>:
   2a694:	b510      	push	{r4, lr}
   2a696:	b084      	sub	sp, #16
   2a698:	4b1e      	ldr	r3, [pc, #120]	; (2a714 <reply+0x80>)
   2a69a:	6818      	ldr	r0, [r3, #0]
   2a69c:	2800      	cmp	r0, #0
   2a69e:	db04      	blt.n	2a6aa <reply+0x16>
   2a6a0:	4b1d      	ldr	r3, [pc, #116]	; (2a718 <reply+0x84>)
   2a6a2:	f8d3 3108 	ldr.w	r3, [r3, #264]	; 0x108
   2a6a6:	2b00      	cmp	r3, #0
   2a6a8:	dc19      	bgt.n	2a6de <reply+0x4a>
   2a6aa:	4b1a      	ldr	r3, [pc, #104]	; (2a714 <reply+0x80>)
   2a6ac:	685b      	ldr	r3, [r3, #4]
   2a6ae:	b1a3      	cbz	r3, 2a6da <reply+0x46>
   2a6b0:	4b19      	ldr	r3, [pc, #100]	; (2a718 <reply+0x84>)
   2a6b2:	681a      	ldr	r2, [r3, #0]
   2a6b4:	2a00      	cmp	r2, #0
   2a6b6:	dd10      	ble.n	2a6da <reply+0x46>
   2a6b8:	4619      	mov	r1, r3
   2a6ba:	f8d3 3210 	ldr.w	r3, [r3, #528]	; 0x210
   2a6be:	18c8      	adds	r0, r1, r3
   2a6c0:	7a04      	ldrb	r4, [r0, #8]
   2a6c2:	4816      	ldr	r0, [pc, #88]	; (2a71c <reply+0x88>)
   2a6c4:	f8c0 451c 	str.w	r4, [r0, #1308]	; 0x51c
   2a6c8:	3301      	adds	r3, #1
   2a6ca:	b2db      	uxtb	r3, r3
   2a6cc:	f8c1 3210 	str.w	r3, [r1, #528]	; 0x210
   2a6d0:	3a01      	subs	r2, #1
   2a6d2:	600a      	str	r2, [r1, #0]
   2a6d4:	4b0f      	ldr	r3, [pc, #60]	; (2a714 <reply+0x80>)
   2a6d6:	2200      	movs	r2, #0
   2a6d8:	605a      	str	r2, [r3, #4]
   2a6da:	b004      	add	sp, #16
   2a6dc:	bd10      	pop	{r4, pc}
   2a6de:	4c0e      	ldr	r4, [pc, #56]	; (2a718 <reply+0x84>)
   2a6e0:	f8d4 320c 	ldr.w	r3, [r4, #524]	; 0x20c
   2a6e4:	4423      	add	r3, r4
   2a6e6:	f893 310c 	ldrb.w	r3, [r3, #268]	; 0x10c
   2a6ea:	9301      	str	r3, [sp, #4]
   2a6ec:	466a      	mov	r2, sp
   2a6ee:	2102      	movs	r1, #2
   2a6f0:	f7ff fa52 	bl	29b98 <send>
   2a6f4:	f8d4 320c 	ldr.w	r3, [r4, #524]	; 0x20c
   2a6f8:	3301      	adds	r3, #1
   2a6fa:	b2db      	uxtb	r3, r3
   2a6fc:	f8c4 320c 	str.w	r3, [r4, #524]	; 0x20c
   2a700:	f8d4 3108 	ldr.w	r3, [r4, #264]	; 0x108
   2a704:	3b01      	subs	r3, #1
   2a706:	f8c4 3108 	str.w	r3, [r4, #264]	; 0x108
   2a70a:	4b02      	ldr	r3, [pc, #8]	; (2a714 <reply+0x80>)
   2a70c:	f04f 32ff 	mov.w	r2, #4294967295	; 0xffffffff
   2a710:	601a      	str	r2, [r3, #0]
   2a712:	e7ca      	b.n	2a6aa <reply+0x16>
   2a714:	20006030 	.word	0x20006030
   2a718:	2000680c 	.word	0x2000680c
   2a71c:	40002000 	.word	0x40002000

0002a720 <serial_interrupt>:
   2a720:	b538      	push	{r3, r4, r5, lr}
   2a722:	4b46      	ldr	r3, [pc, #280]	; (2a83c <serial_interrupt+0x11c>)
   2a724:	f8d3 3108 	ldr.w	r3, [r3, #264]	; 0x108
   2a728:	b993      	cbnz	r3, 2a750 <serial_interrupt+0x30>
   2a72a:	4b44      	ldr	r3, [pc, #272]	; (2a83c <serial_interrupt+0x11c>)
   2a72c:	f8d3 311c 	ldr.w	r3, [r3, #284]	; 0x11c
   2a730:	b133      	cbz	r3, 2a740 <serial_interrupt+0x20>
   2a732:	4b43      	ldr	r3, [pc, #268]	; (2a840 <serial_interrupt+0x120>)
   2a734:	2201      	movs	r2, #1
   2a736:	605a      	str	r2, [r3, #4]
   2a738:	4b40      	ldr	r3, [pc, #256]	; (2a83c <serial_interrupt+0x11c>)
   2a73a:	2200      	movs	r2, #0
   2a73c:	f8c3 211c 	str.w	r2, [r3, #284]	; 0x11c
   2a740:	f04f 23e0 	mov.w	r3, #3758153728	; 0xe000e000
   2a744:	2204      	movs	r2, #4
   2a746:	f8c3 2280 	str.w	r2, [r3, #640]	; 0x280
   2a74a:	f8c3 2100 	str.w	r2, [r3, #256]	; 0x100
   2a74e:	bd38      	pop	{r3, r4, r5, pc}
   2a750:	4b3a      	ldr	r3, [pc, #232]	; (2a83c <serial_interrupt+0x11c>)
   2a752:	f8d3 0518 	ldr.w	r0, [r3, #1304]	; 0x518
   2a756:	b2c0      	uxtb	r0, r0
   2a758:	280d      	cmp	r0, #13
   2a75a:	d80c      	bhi.n	2a776 <serial_interrupt+0x56>
   2a75c:	2801      	cmp	r0, #1
   2a75e:	d949      	bls.n	2a7f4 <serial_interrupt+0xd4>
   2a760:	1e83      	subs	r3, r0, #2
   2a762:	2b0b      	cmp	r3, #11
   2a764:	d84b      	bhi.n	2a7fe <serial_interrupt+0xde>
   2a766:	e8df f003 	tbb	[pc, r3]
   2a76a:	4a43      	.short	0x4a43
   2a76c:	4a4a4a4a 	.word	0x4a4a4a4a
   2a770:	4a214a08 	.word	0x4a214a08
   2a774:	214a      	.short	0x214a
   2a776:	287f      	cmp	r0, #127	; 0x7f
   2a778:	d141      	bne.n	2a7fe <serial_interrupt+0xde>
   2a77a:	4b32      	ldr	r3, [pc, #200]	; (2a844 <serial_interrupt+0x124>)
   2a77c:	f8d3 3214 	ldr.w	r3, [r3, #532]	; 0x214
   2a780:	2b00      	cmp	r3, #0
   2a782:	dd37      	ble.n	2a7f4 <serial_interrupt+0xd4>
   2a784:	4a2f      	ldr	r2, [pc, #188]	; (2a844 <serial_interrupt+0x124>)
   2a786:	3b01      	subs	r3, #1
   2a788:	f8c2 3214 	str.w	r3, [r2, #532]	; 0x214
   2a78c:	f8d2 3218 	ldr.w	r3, [r2, #536]	; 0x218
   2a790:	3b01      	subs	r3, #1
   2a792:	b2db      	uxtb	r3, r3
   2a794:	f8c2 3218 	str.w	r3, [r2, #536]	; 0x218
   2a798:	2008      	movs	r0, #8
   2a79a:	f7ff ff67 	bl	2a66c <echo>
   2a79e:	2020      	movs	r0, #32
   2a7a0:	f7ff ff64 	bl	2a66c <echo>
   2a7a4:	2008      	movs	r0, #8
   2a7a6:	f7ff ff61 	bl	2a66c <echo>
   2a7aa:	e023      	b.n	2a7f4 <serial_interrupt+0xd4>
   2a7ac:	4a25      	ldr	r2, [pc, #148]	; (2a844 <serial_interrupt+0x124>)
   2a7ae:	f8d2 0108 	ldr.w	r0, [r2, #264]	; 0x108
   2a7b2:	f8d2 3214 	ldr.w	r3, [r2, #532]	; 0x214
   2a7b6:	18c2      	adds	r2, r0, r3
   2a7b8:	f5b2 7f80 	cmp.w	r2, #256	; 0x100
   2a7bc:	d01a      	beq.n	2a7f4 <serial_interrupt+0xd4>
   2a7be:	4921      	ldr	r1, [pc, #132]	; (2a844 <serial_interrupt+0x124>)
   2a7c0:	f8d1 2218 	ldr.w	r2, [r1, #536]	; 0x218
   2a7c4:	188d      	adds	r5, r1, r2
   2a7c6:	240a      	movs	r4, #10
   2a7c8:	f885 410c 	strb.w	r4, [r5, #268]	; 0x10c
   2a7cc:	3201      	adds	r2, #1
   2a7ce:	b2d2      	uxtb	r2, r2
   2a7d0:	f8c1 2218 	str.w	r2, [r1, #536]	; 0x218
   2a7d4:	3301      	adds	r3, #1
   2a7d6:	4403      	add	r3, r0
   2a7d8:	f8c1 3108 	str.w	r3, [r1, #264]	; 0x108
   2a7dc:	2300      	movs	r3, #0
   2a7de:	f8c1 3214 	str.w	r3, [r1, #532]	; 0x214
   2a7e2:	200d      	movs	r0, #13
   2a7e4:	f7ff ff42 	bl	2a66c <echo>
   2a7e8:	4620      	mov	r0, r4
   2a7ea:	f7ff ff3f 	bl	2a66c <echo>
   2a7ee:	e001      	b.n	2a7f4 <serial_interrupt+0xd4>
   2a7f0:	f7ff f9d8 	bl	29ba4 <dump>
   2a7f4:	4b11      	ldr	r3, [pc, #68]	; (2a83c <serial_interrupt+0x11c>)
   2a7f6:	2200      	movs	r2, #0
   2a7f8:	f8c3 2108 	str.w	r2, [r3, #264]	; 0x108
   2a7fc:	e795      	b.n	2a72a <serial_interrupt+0xa>
   2a7fe:	f1a0 0320 	sub.w	r3, r0, #32
   2a802:	b2db      	uxtb	r3, r3
   2a804:	2b5e      	cmp	r3, #94	; 0x5e
   2a806:	d8f5      	bhi.n	2a7f4 <serial_interrupt+0xd4>
   2a808:	4b0e      	ldr	r3, [pc, #56]	; (2a844 <serial_interrupt+0x124>)
   2a80a:	f8d3 2214 	ldr.w	r2, [r3, #532]	; 0x214
   2a80e:	f8d3 3108 	ldr.w	r3, [r3, #264]	; 0x108
   2a812:	4413      	add	r3, r2
   2a814:	f5b3 7f80 	cmp.w	r3, #256	; 0x100
   2a818:	d0ec      	beq.n	2a7f4 <serial_interrupt+0xd4>
   2a81a:	490a      	ldr	r1, [pc, #40]	; (2a844 <serial_interrupt+0x124>)
   2a81c:	f8d1 3218 	ldr.w	r3, [r1, #536]	; 0x218
   2a820:	18cc      	adds	r4, r1, r3
   2a822:	f884 010c 	strb.w	r0, [r4, #268]	; 0x10c
   2a826:	3301      	adds	r3, #1
   2a828:	b2db      	uxtb	r3, r3
   2a82a:	f8c1 3218 	str.w	r3, [r1, #536]	; 0x218
   2a82e:	3201      	adds	r2, #1
   2a830:	f8c1 2214 	str.w	r2, [r1, #532]	; 0x214
   2a834:	f7ff ff1a 	bl	2a66c <echo>
   2a838:	e7dc      	b.n	2a7f4 <serial_interrupt+0xd4>
   2a83a:	bf00      	nop
   2a83c:	40002000 	.word	0x40002000
   2a840:	20006030 	.word	0x20006030
   2a844:	2000680c 	.word	0x2000680c

0002a848 <queue_char>:
   2a848:	b5f8      	push	{r3, r4, r5, r6, r7, lr}
   2a84a:	4607      	mov	r7, r0
   2a84c:	4b0e      	ldr	r3, [pc, #56]	; (2a888 <queue_char+0x40>)
   2a84e:	681b      	ldr	r3, [r3, #0]
   2a850:	f5b3 7f80 	cmp.w	r3, #256	; 0x100
   2a854:	d10e      	bne.n	2a874 <queue_char+0x2c>
   2a856:	2600      	movs	r6, #0
   2a858:	2501      	movs	r5, #1
   2a85a:	4c0b      	ldr	r4, [pc, #44]	; (2a888 <queue_char+0x40>)
   2a85c:	4631      	mov	r1, r6
   2a85e:	4628      	mov	r0, r5
   2a860:	f7ff f99c 	bl	29b9c <receive>
   2a864:	f7ff ff5c 	bl	2a720 <serial_interrupt>
   2a868:	f7ff ff14 	bl	2a694 <reply>
   2a86c:	6823      	ldr	r3, [r4, #0]
   2a86e:	f5b3 7f80 	cmp.w	r3, #256	; 0x100
   2a872:	d0f3      	beq.n	2a85c <queue_char+0x14>
   2a874:	4904      	ldr	r1, [pc, #16]	; (2a888 <queue_char+0x40>)
   2a876:	684a      	ldr	r2, [r1, #4]
   2a878:	1888      	adds	r0, r1, r2
   2a87a:	7207      	strb	r7, [r0, #8]
   2a87c:	3201      	adds	r2, #1
   2a87e:	b2d2      	uxtb	r2, r2
   2a880:	604a      	str	r2, [r1, #4]
   2a882:	3301      	adds	r3, #1
   2a884:	600b      	str	r3, [r1, #0]
   2a886:	bdf8      	pop	{r3, r4, r5, r6, r7, pc}
   2a888:	2000680c 	.word	0x2000680c

0002a88c <serial_task>:
   2a88c:	e92d 47f0 	stmdb	sp!, {r4, r5, r6, r7, r8, r9, sl, lr}
   2a890:	b084      	sub	sp, #16
   2a892:	4b4b      	ldr	r3, [pc, #300]	; (2a9c0 <serial_task+0x134>)
   2a894:	2200      	movs	r2, #0
   2a896:	f8c3 2500 	str.w	r2, [r3, #1280]	; 0x500
   2a89a:	494a      	ldr	r1, [pc, #296]	; (2a9c4 <serial_task+0x138>)
   2a89c:	f8c3 1524 	str.w	r1, [r3, #1316]	; 0x524
   2a8a0:	f8c3 256c 	str.w	r2, [r3, #1388]	; 0x56c
   2a8a4:	212b      	movs	r1, #43	; 0x2b
   2a8a6:	f8c3 150c 	str.w	r1, [r3, #1292]	; 0x50c
   2a8aa:	212c      	movs	r1, #44	; 0x2c
   2a8ac:	f8c3 1514 	str.w	r1, [r3, #1300]	; 0x514
   2a8b0:	2504      	movs	r5, #4
   2a8b2:	f8c3 5500 	str.w	r5, [r3, #1280]	; 0x500
   2a8b6:	2401      	movs	r4, #1
   2a8b8:	609c      	str	r4, [r3, #8]
   2a8ba:	601c      	str	r4, [r3, #0]
   2a8bc:	f8c3 2108 	str.w	r2, [r3, #264]	; 0x108
   2a8c0:	2284      	movs	r2, #132	; 0x84
   2a8c2:	f8c3 2304 	str.w	r2, [r3, #772]	; 0x304
   2a8c6:	2002      	movs	r0, #2
   2a8c8:	f7ff f9b6 	bl	29c38 <connect>
   2a8cc:	f04f 23e0 	mov.w	r3, #3758153728	; 0xe000e000
   2a8d0:	f8c3 5100 	str.w	r5, [r3, #256]	; 0x100
   2a8d4:	4b3c      	ldr	r3, [pc, #240]	; (2a9c8 <serial_task+0x13c>)
   2a8d6:	605c      	str	r4, [r3, #4]
   2a8d8:	4698      	mov	r8, r3
   2a8da:	f8df 90f0 	ldr.w	r9, [pc, #240]	; 2a9cc <serial_task+0x140>
   2a8de:	e037      	b.n	2a950 <serial_task+0xc4>
   2a8e0:	f7ff ff1e 	bl	2a720 <serial_interrupt>
   2a8e4:	e032      	b.n	2a94c <serial_task+0xc0>
   2a8e6:	f8d8 3000 	ldr.w	r3, [r8]
   2a8ea:	2b00      	cmp	r3, #0
   2a8ec:	da02      	bge.n	2a8f4 <serial_task+0x68>
   2a8ee:	f8c8 7000 	str.w	r7, [r8]
   2a8f2:	e02b      	b.n	2a94c <serial_task+0xc0>
   2a8f4:	4648      	mov	r0, r9
   2a8f6:	f7ff f971 	bl	29bdc <panic>
   2a8fa:	e7f8      	b.n	2a8ee <serial_task+0x62>
   2a8fc:	f89d 4004 	ldrb.w	r4, [sp, #4]
   2a900:	2c0a      	cmp	r4, #10
   2a902:	d003      	beq.n	2a90c <serial_task+0x80>
   2a904:	4620      	mov	r0, r4
   2a906:	f7ff ff9f 	bl	2a848 <queue_char>
   2a90a:	e01f      	b.n	2a94c <serial_task+0xc0>
   2a90c:	200d      	movs	r0, #13
   2a90e:	f7ff ff9b 	bl	2a848 <queue_char>
   2a912:	e7f7      	b.n	2a904 <serial_task+0x78>
   2a914:	9e01      	ldr	r6, [sp, #4]
   2a916:	9b02      	ldr	r3, [sp, #8]
   2a918:	2b00      	cmp	r3, #0
   2a91a:	dd12      	ble.n	2a942 <serial_task+0xb6>
   2a91c:	1e74      	subs	r4, r6, #1
   2a91e:	441e      	add	r6, r3
   2a920:	3e01      	subs	r6, #1
   2a922:	f04f 0a0d 	mov.w	sl, #13
   2a926:	e007      	b.n	2a938 <serial_task+0xac>
   2a928:	4650      	mov	r0, sl
   2a92a:	f7ff ff8d 	bl	2a848 <queue_char>
   2a92e:	4628      	mov	r0, r5
   2a930:	f7ff ff8a 	bl	2a848 <queue_char>
   2a934:	42b4      	cmp	r4, r6
   2a936:	d004      	beq.n	2a942 <serial_task+0xb6>
   2a938:	f814 5f01 	ldrb.w	r5, [r4, #1]!
   2a93c:	2d0a      	cmp	r5, #10
   2a93e:	d1f6      	bne.n	2a92e <serial_task+0xa2>
   2a940:	e7f2      	b.n	2a928 <serial_task+0x9c>
   2a942:	2200      	movs	r2, #0
   2a944:	2102      	movs	r1, #2
   2a946:	4638      	mov	r0, r7
   2a948:	f7ff f926 	bl	29b98 <send>
   2a94c:	f7ff fea2 	bl	2a694 <reply>
   2a950:	4669      	mov	r1, sp
   2a952:	f04f 30ff 	mov.w	r0, #4294967295	; 0xffffffff
   2a956:	f7ff f921 	bl	29b9c <receive>
   2a95a:	f9bd 7002 	ldrsh.w	r7, [sp, #2]
   2a95e:	f8bd 0000 	ldrh.w	r0, [sp]
   2a962:	1e43      	subs	r3, r0, #1
   2a964:	2b11      	cmp	r3, #17
   2a966:	d827      	bhi.n	2a9b8 <serial_task+0x12c>
   2a968:	a201      	add	r2, pc, #4	; (adr r2, 2a970 <serial_task+0xe4>)
   2a96a:	f852 f023 	ldr.w	pc, [r2, r3, lsl #2]
   2a96e:	bf00      	nop
   2a970:	0002a8e1 	.word	0x0002a8e1
   2a974:	0002a9b9 	.word	0x0002a9b9
   2a978:	0002a9b9 	.word	0x0002a9b9
   2a97c:	0002a9b9 	.word	0x0002a9b9
   2a980:	0002a9b9 	.word	0x0002a9b9
   2a984:	0002a9b9 	.word	0x0002a9b9
   2a988:	0002a9b9 	.word	0x0002a9b9
   2a98c:	0002a9b9 	.word	0x0002a9b9
   2a990:	0002a9b9 	.word	0x0002a9b9
   2a994:	0002a9b9 	.word	0x0002a9b9
   2a998:	0002a9b9 	.word	0x0002a9b9
   2a99c:	0002a9b9 	.word	0x0002a9b9
   2a9a0:	0002a9b9 	.word	0x0002a9b9
   2a9a4:	0002a9b9 	.word	0x0002a9b9
   2a9a8:	0002a9b9 	.word	0x0002a9b9
   2a9ac:	0002a8fd 	.word	0x0002a8fd
   2a9b0:	0002a8e7 	.word	0x0002a8e7
   2a9b4:	0002a915 	.word	0x0002a915
   2a9b8:	f7ff fd3e 	bl	2a438 <badmesg>
   2a9bc:	e7c6      	b.n	2a94c <serial_task+0xc0>
   2a9be:	bf00      	nop
   2a9c0:	40002000 	.word	0x40002000
   2a9c4:	00275000 	.word	0x00275000
   2a9c8:	20006030 	.word	0x20006030
   2a9cc:	0002b904 	.word	0x0002b904

0002a9d0 <serial_init>:
   2a9d0:	b508      	push	{r3, lr}
   2a9d2:	f44f 7380 	mov.w	r3, #256	; 0x100
   2a9d6:	2200      	movs	r2, #0
   2a9d8:	4903      	ldr	r1, [pc, #12]	; (2a9e8 <serial_init+0x18>)
   2a9da:	4804      	ldr	r0, [pc, #16]	; (2a9ec <serial_init+0x1c>)
   2a9dc:	f7ff fa20 	bl	29e20 <start>
   2a9e0:	4b03      	ldr	r3, [pc, #12]	; (2a9f0 <serial_init+0x20>)
   2a9e2:	f8c3 021c 	str.w	r0, [r3, #540]	; 0x21c
   2a9e6:	bd08      	pop	{r3, pc}
   2a9e8:	0002a88d 	.word	0x0002a88d
   2a9ec:	0002b930 	.word	0x0002b930
   2a9f0:	2000680c 	.word	0x2000680c

0002a9f4 <serial_putc>:
   2a9f4:	b500      	push	{lr}
   2a9f6:	b085      	sub	sp, #20
   2a9f8:	9001      	str	r0, [sp, #4]
   2a9fa:	466a      	mov	r2, sp
   2a9fc:	2110      	movs	r1, #16
   2a9fe:	4b04      	ldr	r3, [pc, #16]	; (2aa10 <serial_putc+0x1c>)
   2aa00:	f8d3 021c 	ldr.w	r0, [r3, #540]	; 0x21c
   2aa04:	f7ff f8c8 	bl	29b98 <send>
   2aa08:	b005      	add	sp, #20
   2aa0a:	f85d fb04 	ldr.w	pc, [sp], #4
   2aa0e:	bf00      	nop
   2aa10:	2000680c 	.word	0x2000680c

0002aa14 <serial_getc>:
   2aa14:	b500      	push	{lr}
   2aa16:	b085      	sub	sp, #20
   2aa18:	2200      	movs	r2, #0
   2aa1a:	2111      	movs	r1, #17
   2aa1c:	4b06      	ldr	r3, [pc, #24]	; (2aa38 <serial_getc+0x24>)
   2aa1e:	f8d3 021c 	ldr.w	r0, [r3, #540]	; 0x21c
   2aa22:	f7ff f8b9 	bl	29b98 <send>
   2aa26:	4669      	mov	r1, sp
   2aa28:	2002      	movs	r0, #2
   2aa2a:	f7ff f8b7 	bl	29b9c <receive>
   2aa2e:	f89d 0004 	ldrb.w	r0, [sp, #4]
   2aa32:	b005      	add	sp, #20
   2aa34:	f85d fb04 	ldr.w	pc, [sp], #4
   2aa38:	2000680c 	.word	0x2000680c

0002aa3c <print_buf>:
   2aa3c:	b500      	push	{lr}
   2aa3e:	b085      	sub	sp, #20
   2aa40:	9001      	str	r0, [sp, #4]
   2aa42:	9102      	str	r1, [sp, #8]
   2aa44:	466a      	mov	r2, sp
   2aa46:	2112      	movs	r1, #18
   2aa48:	4b03      	ldr	r3, [pc, #12]	; (2aa58 <print_buf+0x1c>)
   2aa4a:	f8d3 021c 	ldr.w	r0, [r3, #540]	; 0x21c
   2aa4e:	f7ff f8a7 	bl	29ba0 <sendrec>
   2aa52:	b005      	add	sp, #20
   2aa54:	f85d fb04 	ldr.w	pc, [sp], #4
   2aa58:	2000680c 	.word	0x2000680c

0002aa5c <i2c_wait>:
   2aa5c:	b570      	push	{r4, r5, r6, lr}
   2aa5e:	4605      	mov	r5, r0
   2aa60:	460e      	mov	r6, r1
   2aa62:	eb00 0240 	add.w	r2, r0, r0, lsl #1
   2aa66:	4b1c      	ldr	r3, [pc, #112]	; (2aad8 <i2c_wait+0x7c>)
   2aa68:	eb03 0382 	add.w	r3, r3, r2, lsl #2
   2aa6c:	689c      	ldr	r4, [r3, #8]
   2aa6e:	2100      	movs	r1, #0
   2aa70:	2001      	movs	r0, #1
   2aa72:	f7ff f893 	bl	29b9c <receive>
   2aa76:	4b19      	ldr	r3, [pc, #100]	; (2aadc <i2c_wait+0x80>)
   2aa78:	f853 3025 	ldr.w	r3, [r3, r5, lsl #2]
   2aa7c:	f8d3 2124 	ldr.w	r2, [r3, #292]	; 0x124
   2aa80:	b98a      	cbnz	r2, 2aaa6 <i2c_wait+0x4a>
   2aa82:	6833      	ldr	r3, [r6, #0]
   2aa84:	b303      	cbz	r3, 2aac8 <i2c_wait+0x6c>
   2aa86:	2300      	movs	r3, #0
   2aa88:	6033      	str	r3, [r6, #0]
   2aa8a:	f004 021f 	and.w	r2, r4, #31
   2aa8e:	2301      	movs	r3, #1
   2aa90:	4093      	lsls	r3, r2
   2aa92:	1164      	asrs	r4, r4, #5
   2aa94:	00a4      	lsls	r4, r4, #2
   2aa96:	f104 24e0 	add.w	r4, r4, #3758153728	; 0xe000e000
   2aa9a:	f8c4 3280 	str.w	r3, [r4, #640]	; 0x280
   2aa9e:	f8c4 3100 	str.w	r3, [r4, #256]	; 0x100
   2aaa2:	2009      	movs	r0, #9
   2aaa4:	bd70      	pop	{r4, r5, r6, pc}
   2aaa6:	2200      	movs	r2, #0
   2aaa8:	f8c3 2124 	str.w	r2, [r3, #292]	; 0x124
   2aaac:	f004 021f 	and.w	r2, r4, #31
   2aab0:	2301      	movs	r3, #1
   2aab2:	4093      	lsls	r3, r2
   2aab4:	1164      	asrs	r4, r4, #5
   2aab6:	00a4      	lsls	r4, r4, #2
   2aab8:	f104 24e0 	add.w	r4, r4, #3758153728	; 0xe000e000
   2aabc:	f8c4 3280 	str.w	r3, [r4, #640]	; 0x280
   2aac0:	f8c4 3100 	str.w	r3, [r4, #256]	; 0x100
   2aac4:	200a      	movs	r0, #10
   2aac6:	e7ed      	b.n	2aaa4 <i2c_wait+0x48>
   2aac8:	4b05      	ldr	r3, [pc, #20]	; (2aae0 <i2c_wait+0x84>)
   2aaca:	222e      	movs	r2, #46	; 0x2e
   2aacc:	4905      	ldr	r1, [pc, #20]	; (2aae4 <i2c_wait+0x88>)
   2aace:	4806      	ldr	r0, [pc, #24]	; (2aae8 <i2c_wait+0x8c>)
   2aad0:	f7ff f884 	bl	29bdc <panic>
   2aad4:	e7d7      	b.n	2aa86 <i2c_wait+0x2a>
   2aad6:	bf00      	nop
   2aad8:	0002b984 	.word	0x0002b984
   2aadc:	0002b9d4 	.word	0x0002b9d4
   2aae0:	0002b938 	.word	0x0002b938
   2aae4:	0002b940 	.word	0x0002b940
   2aae8:	0002b948 	.word	0x0002b948

0002aaec <i2c_do_write>:
   2aaec:	2a00      	cmp	r2, #0
   2aaee:	dd17      	ble.n	2ab20 <i2c_do_write+0x34>
   2aaf0:	e92d 41f0 	stmdb	sp!, {r4, r5, r6, r7, r8, lr}
   2aaf4:	4606      	mov	r6, r0
   2aaf6:	1e4c      	subs	r4, r1, #1
   2aaf8:	18a5      	adds	r5, r4, r2
   2aafa:	4b0a      	ldr	r3, [pc, #40]	; (2ab24 <i2c_do_write+0x38>)
   2aafc:	f853 7020 	ldr.w	r7, [r3, r0, lsl #2]
   2ab00:	f507 788e 	add.w	r8, r7, #284	; 0x11c
   2ab04:	f814 3f01 	ldrb.w	r3, [r4, #1]!
   2ab08:	f8c7 351c 	str.w	r3, [r7, #1308]	; 0x51c
   2ab0c:	4641      	mov	r1, r8
   2ab0e:	4630      	mov	r0, r6
   2ab10:	f7ff ffa4 	bl	2aa5c <i2c_wait>
   2ab14:	2809      	cmp	r0, #9
   2ab16:	d101      	bne.n	2ab1c <i2c_do_write+0x30>
   2ab18:	42ac      	cmp	r4, r5
   2ab1a:	d1f3      	bne.n	2ab04 <i2c_do_write+0x18>
   2ab1c:	e8bd 81f0 	ldmia.w	sp!, {r4, r5, r6, r7, r8, pc}
   2ab20:	2009      	movs	r0, #9
   2ab22:	4770      	bx	lr
   2ab24:	0002b9d4 	.word	0x0002b9d4

0002ab28 <i2c_task>:
   2ab28:	e92d 4ff0 	stmdb	sp!, {r4, r5, r6, r7, r8, r9, sl, fp, lr}
   2ab2c:	b087      	sub	sp, #28
   2ab2e:	4683      	mov	fp, r0
   2ab30:	4b6c      	ldr	r3, [pc, #432]	; (2ace4 <i2c_task+0x1bc>)
   2ab32:	f853 3020 	ldr.w	r3, [r3, r0, lsl #2]
   2ab36:	496c      	ldr	r1, [pc, #432]	; (2ace8 <i2c_task+0x1c0>)
   2ab38:	eb00 0040 	add.w	r0, r0, r0, lsl #1
   2ab3c:	eb01 0280 	add.w	r2, r1, r0, lsl #2
   2ab40:	f851 1020 	ldr.w	r1, [r1, r0, lsl #2]
   2ab44:	f8c3 1508 	str.w	r1, [r3, #1288]	; 0x508
   2ab48:	6851      	ldr	r1, [r2, #4]
   2ab4a:	f8c3 150c 	str.w	r1, [r3, #1292]	; 0x50c
   2ab4e:	f04f 71cc 	mov.w	r1, #26738688	; 0x1980000
   2ab52:	f8c3 1524 	str.w	r1, [r3, #1316]	; 0x524
   2ab56:	2105      	movs	r1, #5
   2ab58:	f8c3 1500 	str.w	r1, [r3, #1280]	; 0x500
   2ab5c:	f240 2186 	movw	r1, #646	; 0x286
   2ab60:	f8c3 1300 	str.w	r1, [r3, #768]	; 0x300
   2ab64:	6894      	ldr	r4, [r2, #8]
   2ab66:	4620      	mov	r0, r4
   2ab68:	f7ff f866 	bl	29c38 <connect>
   2ab6c:	1163      	asrs	r3, r4, #5
   2ab6e:	f004 041f 	and.w	r4, r4, #31
   2ab72:	2201      	movs	r2, #1
   2ab74:	fa02 f404 	lsl.w	r4, r2, r4
   2ab78:	3340      	adds	r3, #64	; 0x40
   2ab7a:	f04f 22e0 	mov.w	r2, #3758153728	; 0xe000e000
   2ab7e:	f842 4023 	str.w	r4, [r2, r3, lsl #2]
   2ab82:	2300      	movs	r3, #0
   2ab84:	9301      	str	r3, [sp, #4]
   2ab86:	f04f 0801 	mov.w	r8, #1
   2ab8a:	e089      	b.n	2aca0 <i2c_task+0x178>
   2ab8c:	4855      	ldr	r0, [pc, #340]	; (2ace4 <i2c_task+0x1bc>)
   2ab8e:	f850 402b 	ldr.w	r4, [r0, fp, lsl #2]
   2ab92:	f8c4 3588 	str.w	r3, [r4, #1416]	; 0x588
   2ab96:	b302      	cbz	r2, 2abda <i2c_task+0xb2>
   2ab98:	f8c4 8008 	str.w	r8, [r4, #8]
   2ab9c:	4658      	mov	r0, fp
   2ab9e:	f7ff ffa5 	bl	2aaec <i2c_do_write>
   2aba2:	4605      	mov	r5, r0
   2aba4:	2809      	cmp	r0, #9
   2aba6:	d018      	beq.n	2abda <i2c_task+0xb2>
   2aba8:	f8c4 8014 	str.w	r8, [r4, #20]
   2abac:	f504 7182 	add.w	r1, r4, #260	; 0x104
   2abb0:	4658      	mov	r0, fp
   2abb2:	f7ff ff53 	bl	2aa5c <i2c_wait>
   2abb6:	f8d4 34c4 	ldr.w	r3, [r4, #1220]	; 0x4c4
   2abba:	9301      	str	r3, [sp, #4]
   2abbc:	2307      	movs	r3, #7
   2abbe:	f8c4 34c4 	str.w	r3, [r4, #1220]	; 0x4c4
   2abc2:	2300      	movs	r3, #0
   2abc4:	f8c4 3200 	str.w	r3, [r4, #512]	; 0x200
   2abc8:	9503      	str	r5, [sp, #12]
   2abca:	9b01      	ldr	r3, [sp, #4]
   2abcc:	9304      	str	r3, [sp, #16]
   2abce:	aa02      	add	r2, sp, #8
   2abd0:	2102      	movs	r1, #2
   2abd2:	4650      	mov	r0, sl
   2abd4:	f7fe ffe0 	bl	29b98 <send>
   2abd8:	e062      	b.n	2aca0 <i2c_task+0x178>
   2abda:	f1b9 0f00 	cmp.w	r9, #0
   2abde:	d07a      	beq.n	2acd6 <i2c_task+0x1ae>
   2abe0:	3f01      	subs	r7, #1
   2abe2:	2600      	movs	r6, #0
   2abe4:	f109 35ff 	add.w	r5, r9, #4294967295	; 0xffffffff
   2abe8:	e00f      	b.n	2ac0a <i2c_task+0xe2>
   2abea:	f8c4 8000 	str.w	r8, [r4]
   2abee:	f504 7184 	add.w	r1, r4, #264	; 0x108
   2abf2:	4658      	mov	r0, fp
   2abf4:	f7ff ff32 	bl	2aa5c <i2c_wait>
   2abf8:	2809      	cmp	r0, #9
   2abfa:	d16a      	bne.n	2acd2 <i2c_task+0x1aa>
   2abfc:	f8d4 3518 	ldr.w	r3, [r4, #1304]	; 0x518
   2ac00:	f807 3f01 	strb.w	r3, [r7, #1]!
   2ac04:	3601      	adds	r6, #1
   2ac06:	45b1      	cmp	r9, r6
   2ac08:	d065      	beq.n	2acd6 <i2c_task+0x1ae>
   2ac0a:	42b5      	cmp	r5, r6
   2ac0c:	bfce      	itee	gt
   2ac0e:	f8c4 8200 	strgt.w	r8, [r4, #512]	; 0x200
   2ac12:	2302      	movle	r3, #2
   2ac14:	f8c4 3200 	strle.w	r3, [r4, #512]	; 0x200
   2ac18:	2e00      	cmp	r6, #0
   2ac1a:	d0e6      	beq.n	2abea <i2c_task+0xc2>
   2ac1c:	f8c4 8020 	str.w	r8, [r4, #32]
   2ac20:	e7e5      	b.n	2abee <i2c_task+0xc6>
   2ac22:	4830      	ldr	r0, [pc, #192]	; (2ace4 <i2c_task+0x1bc>)
   2ac24:	f850 402b 	ldr.w	r4, [r0, fp, lsl #2]
   2ac28:	f8c4 3588 	str.w	r3, [r4, #1416]	; 0x588
   2ac2c:	f8c4 8008 	str.w	r8, [r4, #8]
   2ac30:	b95a      	cbnz	r2, 2ac4a <i2c_task+0x122>
   2ac32:	f1b9 0f00 	cmp.w	r9, #0
   2ac36:	d116      	bne.n	2ac66 <i2c_task+0x13e>
   2ac38:	f8c4 8014 	str.w	r8, [r4, #20]
   2ac3c:	f504 7182 	add.w	r1, r4, #260	; 0x104
   2ac40:	4658      	mov	r0, fp
   2ac42:	f7ff ff0b 	bl	2aa5c <i2c_wait>
   2ac46:	2509      	movs	r5, #9
   2ac48:	e022      	b.n	2ac90 <i2c_task+0x168>
   2ac4a:	4658      	mov	r0, fp
   2ac4c:	f7ff ff4e 	bl	2aaec <i2c_do_write>
   2ac50:	4605      	mov	r5, r0
   2ac52:	2809      	cmp	r0, #9
   2ac54:	d0ed      	beq.n	2ac32 <i2c_task+0x10a>
   2ac56:	f8c4 8014 	str.w	r8, [r4, #20]
   2ac5a:	f504 7182 	add.w	r1, r4, #260	; 0x104
   2ac5e:	4658      	mov	r0, fp
   2ac60:	f7ff fefc 	bl	2aa5c <i2c_wait>
   2ac64:	e00e      	b.n	2ac84 <i2c_task+0x15c>
   2ac66:	464a      	mov	r2, r9
   2ac68:	4639      	mov	r1, r7
   2ac6a:	4658      	mov	r0, fp
   2ac6c:	f7ff ff3e 	bl	2aaec <i2c_do_write>
   2ac70:	4605      	mov	r5, r0
   2ac72:	f8c4 8014 	str.w	r8, [r4, #20]
   2ac76:	f504 7182 	add.w	r1, r4, #260	; 0x104
   2ac7a:	4658      	mov	r0, fp
   2ac7c:	f7ff feee 	bl	2aa5c <i2c_wait>
   2ac80:	2d09      	cmp	r5, #9
   2ac82:	d005      	beq.n	2ac90 <i2c_task+0x168>
   2ac84:	f8d4 34c4 	ldr.w	r3, [r4, #1220]	; 0x4c4
   2ac88:	9301      	str	r3, [sp, #4]
   2ac8a:	2307      	movs	r3, #7
   2ac8c:	f8c4 34c4 	str.w	r3, [r4, #1220]	; 0x4c4
   2ac90:	9503      	str	r5, [sp, #12]
